

Microchip MPLAB XC8 Assembler V2.31 build 20201012212115 
                                                                                               Fri Jun 04 22:42:17 2021

Microchip MPLAB XC8 C Compiler v2.31 (Free license) build 20201012212115 Og1 
     1                           	processor	16F887
     2                           	pagewidth 120
     3                           	opt	flic
     4                           	psect	strings,global,class=STRING,delta=2,noexec
     5                           	psect	stringtext,global,reloc=256,class=STRCODE,delta=2,noexec
     6                           	psect	cinit,global,class=CODE,merge=1,delta=2
     7                           	psect	bssCOMMON,global,class=COMMON,space=1,delta=1,noexec
     8                           	psect	bssBANK0,global,class=BANK0,space=1,delta=1,noexec
     9                           	psect	clrtext,global,class=CODE,delta=2
    10                           	psect	cstackCOMMON,global,class=COMMON,space=1,delta=1,noexec
    11                           	psect	cstackBANK0,global,class=BANK0,space=1,delta=1,noexec
    12                           	psect	maintext,global,class=CODE,split=1,delta=2
    13                           	psect	text1,local,class=CODE,merge=1,delta=2
    14                           	psect	text2,local,class=CODE,merge=1,delta=2,group=1
    15                           	psect	text3,local,class=CODE,merge=1,delta=2
    16                           	psect	text4,local,class=CODE,merge=1,delta=2
    17                           	psect	intentry,global,class=CODE,delta=2
    18                           	psect	text5,local,class=CODE,merge=1,delta=2
    19                           	psect	text6,local,class=CODE,merge=1,delta=2
    20                           	psect	text7,local,class=CODE,merge=1,delta=2
    21                           	psect	text8,local,class=CODE,merge=1,delta=2
    22                           	psect	text9,local,class=CODE,merge=1,delta=2
    23                           	psect	text10,local,class=CODE,merge=1,delta=2
    24                           	psect	text11,local,class=CODE,merge=1,delta=2
    25                           	psect	config,global,abs,ovrld,class=CONFIG,space=4,delta=2,noexec
    26                           	dabs	1,0x7E,2
    27  0000                     
    28                           ; Version 2.20
    29                           ; Generated 12/02/2020 GMT
    30                           ; 
    31                           ; Copyright © 2020, Microchip Technology Inc. and its subsidiaries ("Microchip")
    32                           ; All rights reserved.
    33                           ; 
    34                           ; This software is developed by Microchip Technology Inc. and its subsidiaries ("Microch
      +                          ip").
    35                           ; 
    36                           ; Redistribution and use in source and binary forms, with or without modification, are
    37                           ; permitted provided that the following conditions are met:
    38                           ; 
    39                           ;     1. Redistributions of source code must retain the above copyright notice, this lis
      +                          t of
    40                           ;        conditions and the following disclaimer.
    41                           ; 
    42                           ;     2. Redistributions in binary form must reproduce the above copyright notice, this 
      +                          list
    43                           ;        of conditions and the following disclaimer in the documentation and/or other
    44                           ;        materials provided with the distribution.
    45                           ; 
    46                           ;     3. Microchip's name may not be used to endorse or promote products derived from th
      +                          is
    47                           ;        software without specific prior written permission.
    48                           ; 
    49                           ; THIS SOFTWARE IS PROVIDED BY MICROCHIP "AS IS" AND ANY EXPRESS OR IMPLIED WARRANTIES,
    50                           ; INCLUDING, BUT NOT LIMITED TO, THE IMPLIED WARRANTIES OF MERCHANTABILITY AND FITNESS F
      +                          OR
    51                           ; PURPOSE ARE DISCLAIMED.  IN NO EVENT SHALL MICROCHIP BE LIABLE FOR ANY DIRECT, INDIREC
      +                          T,
    52                           ; INCIDENTAL, SPECIAL, EXEMPLARY, OR CONSEQUENTIAL DAMAGES (INCLUDING BUT NOT LIMITED TO
    53                           ; PROCUREMENT OF SUBSTITUTE GOODS OR SERVICES; LOSS OF USE, DATA OR PROFITS; OR BUSINESS
    54                           ; INTERRUPTION) HOWSOEVER CAUSED AND ON ANY THEORY OF LIABILITY, WHETHER IN CONTRACT, ST
      +                          RICT
    55                           ; LIABILITY, OR TORT (INCLUDING NEGLIGENCE OR OTHERWISE) ARISING IN ANY WAY OUT OF THE U
      +                          SE OF
    56                           ; THIS SOFTWARE, EVEN IF ADVISED OF THE POSSIBILITY OF SUCH DAMAGE.
    57                           ; 
    58                           ; 
    59                           ; Code-generator required, PIC16F887 Definitions
    60                           ; 
    61                           ; SFR Addresses
    62  0000                     	;# 
    63  0001                     	;# 
    64  0002                     	;# 
    65  0003                     	;# 
    66  0004                     	;# 
    67  0005                     	;# 
    68  0006                     	;# 
    69  0007                     	;# 
    70  0008                     	;# 
    71  0009                     	;# 
    72  000A                     	;# 
    73  000B                     	;# 
    74  000C                     	;# 
    75  000D                     	;# 
    76  000E                     	;# 
    77  000E                     	;# 
    78  000F                     	;# 
    79  0010                     	;# 
    80  0011                     	;# 
    81  0012                     	;# 
    82  0013                     	;# 
    83  0014                     	;# 
    84  0015                     	;# 
    85  0015                     	;# 
    86  0016                     	;# 
    87  0017                     	;# 
    88  0018                     	;# 
    89  0019                     	;# 
    90  001A                     	;# 
    91  001B                     	;# 
    92  001B                     	;# 
    93  001C                     	;# 
    94  001D                     	;# 
    95  001E                     	;# 
    96  001F                     	;# 
    97  0081                     	;# 
    98  0085                     	;# 
    99  0086                     	;# 
   100  0087                     	;# 
   101  0088                     	;# 
   102  0089                     	;# 
   103  008C                     	;# 
   104  008D                     	;# 
   105  008E                     	;# 
   106  008F                     	;# 
   107  0090                     	;# 
   108  0091                     	;# 
   109  0092                     	;# 
   110  0093                     	;# 
   111  0093                     	;# 
   112  0093                     	;# 
   113  0094                     	;# 
   114  0095                     	;# 
   115  0096                     	;# 
   116  0097                     	;# 
   117  0098                     	;# 
   118  0099                     	;# 
   119  009A                     	;# 
   120  009B                     	;# 
   121  009C                     	;# 
   122  009D                     	;# 
   123  009E                     	;# 
   124  009F                     	;# 
   125  0105                     	;# 
   126  0107                     	;# 
   127  0108                     	;# 
   128  0109                     	;# 
   129  010C                     	;# 
   130  010C                     	;# 
   131  010D                     	;# 
   132  010E                     	;# 
   133  010F                     	;# 
   134  0185                     	;# 
   135  0187                     	;# 
   136  0188                     	;# 
   137  0189                     	;# 
   138  018C                     	;# 
   139  018D                     	;# 
   140  0000                     	;# 
   141  0001                     	;# 
   142  0002                     	;# 
   143  0003                     	;# 
   144  0004                     	;# 
   145  0005                     	;# 
   146  0006                     	;# 
   147  0007                     	;# 
   148  0008                     	;# 
   149  0009                     	;# 
   150  000A                     	;# 
   151  000B                     	;# 
   152  000C                     	;# 
   153  000D                     	;# 
   154  000E                     	;# 
   155  000E                     	;# 
   156  000F                     	;# 
   157  0010                     	;# 
   158  0011                     	;# 
   159  0012                     	;# 
   160  0013                     	;# 
   161  0014                     	;# 
   162  0015                     	;# 
   163  0015                     	;# 
   164  0016                     	;# 
   165  0017                     	;# 
   166  0018                     	;# 
   167  0019                     	;# 
   168  001A                     	;# 
   169  001B                     	;# 
   170  001B                     	;# 
   171  001C                     	;# 
   172  001D                     	;# 
   173  001E                     	;# 
   174  001F                     	;# 
   175  0081                     	;# 
   176  0085                     	;# 
   177  0086                     	;# 
   178  0087                     	;# 
   179  0088                     	;# 
   180  0089                     	;# 
   181  008C                     	;# 
   182  008D                     	;# 
   183  008E                     	;# 
   184  008F                     	;# 
   185  0090                     	;# 
   186  0091                     	;# 
   187  0092                     	;# 
   188  0093                     	;# 
   189  0093                     	;# 
   190  0093                     	;# 
   191  0094                     	;# 
   192  0095                     	;# 
   193  0096                     	;# 
   194  0097                     	;# 
   195  0098                     	;# 
   196  0099                     	;# 
   197  009A                     	;# 
   198  009B                     	;# 
   199  009C                     	;# 
   200  009D                     	;# 
   201  009E                     	;# 
   202  009F                     	;# 
   203  0105                     	;# 
   204  0107                     	;# 
   205  0108                     	;# 
   206  0109                     	;# 
   207  010C                     	;# 
   208  010C                     	;# 
   209  010D                     	;# 
   210  010E                     	;# 
   211  010F                     	;# 
   212  0185                     	;# 
   213  0187                     	;# 
   214  0188                     	;# 
   215  0189                     	;# 
   216  018C                     	;# 
   217  018D                     	;# 
   218  000D                     _PIR2bits	set	13
   219  0007                     _PORTCbits	set	7
   220  0018                     _RCSTAbits	set	24
   221  0012                     _T2CONbits	set	18
   222  001D                     _CCP2CONbits	set	29
   223  0017                     _CCP1CONbits	set	23
   224  0009                     _PORTE	set	9
   225  0008                     _PORTD	set	8
   226  0007                     _PORTC	set	7
   227  0006                     _PORTB	set	6
   228  0005                     _PORTA	set	5
   229  0019                     _TXREG	set	25
   230  000B                     _INTCONbits	set	11
   231  0006                     _PORTBbits	set	6
   232  0009                     _PORTEbits	set	9
   233  0008                     _PORTDbits	set	8
   234  001A                     _RCREG	set	26
   235  001B                     _CCPR2L	set	27
   236  001E                     _ADRESH	set	30
   237  0015                     _CCPR1L	set	21
   238  001F                     _ADCON0bits	set	31
   239  000C                     _PIR1bits	set	12
   240  0064                     _TXIF	set	100
   241  0058                     _RBIF	set	88
   242  0065                     _RCIF	set	101
   243  009A                     _SPBRGH	set	154
   244  0099                     _SPBRG	set	153
   245  0098                     _TXSTAbits	set	152
   246  008C                     _PIE1bits	set	140
   247  0092                     _PR2	set	146
   248  009F                     _ADCON1bits	set	159
   249  0096                     _IOCBbits	set	150
   250  0095                     _WPUB	set	149
   251  0081                     _OPTION_REGbits	set	129
   252  0089                     _TRISEbits	set	137
   253  0088                     _TRISDbits	set	136
   254  0087                     _TRISCbits	set	135
   255  0086                     _TRISBbits	set	134
   256  0085                     _TRISA	set	133
   257  008F                     _OSCCONbits	set	143
   258  010C                     _EEDATA	set	268
   259  010C                     _EEDAT	set	268
   260  010D                     _EEADR	set	269
   261  018D                     _EECON2	set	397
   262  018C                     _EECON1bits	set	396
   263  0187                     _BAUDCTLbits	set	391
   264  0189                     _ANSELH	set	393
   265  0188                     _ANSEL	set	392
   266                           
   267                           	psect	strings
   268  05C0                     __pstrings:
   269  05C0                     stringtab:
   270  05C0                     __stringtab:
   271                           
   272                           ;	String table - string pointers are 2 bytes each
   273  05C0  1BFF               	btfsc	btemp+1,7
   274  05C1  2DCA               	ljmp	stringcode
   275  05C2  1383               	bcf	3,7
   276  05C3  187F               	btfsc	btemp+1,0
   277  05C4  1783               	bsf	3,7
   278  05C5  0800               	movf	0,w
   279  05C6  0A84               	incf	4,f
   280  05C7  1903               	skipnz
   281  05C8  0AFF               	incf	btemp+1,f
   282  05C9  0008               	return
   283  05CA                     stringcode:
   284  05CA  087F               	movf	btemp+1,w
   285  05CB  397F               	andlw	127
   286  05CC  008A               	movwf	10
   287  05CD  0804               	movf	4,w
   288  05CE  0A84               	incf	4,f
   289  05CF  1903               	skipnz
   290  05D0  0AFF               	incf	btemp+1,f
   291  05D1  0082               	movwf	2
   292  05D2                     __stringbase:
   293  05D2                     __end_of__stringtab:
   294                           
   295                           	psect	stringtext
   296  0300                     __pstringtext:
   297  0300                     STR_6:
   298  0300  340D               	retlw	13
   299  0301  3420               	retlw	32	;' '
   300  0302  3441               	retlw	65	;'A'
   301  0303  3470               	retlw	112	;'p'
   302  0304  3461               	retlw	97	;'a'
   303  0305  3463               	retlw	99	;'c'
   304  0306  3468               	retlw	104	;'h'
   305  0307  3465               	retlw	101	;'e'
   306  0308  3420               	retlw	32	;' '
   307  0309  3477               	retlw	119	;'w'
   308  030A  3420               	retlw	32	;' '
   309  030B  3470               	retlw	112	;'p'
   310  030C  3461               	retlw	97	;'a'
   311  030D  3472               	retlw	114	;'r'
   312  030E  3461               	retlw	97	;'a'
   313  030F  3420               	retlw	32	;' '
   314  0310  3470               	retlw	112	;'p'
   315  0311  3472               	retlw	114	;'r'
   316  0312  3465               	retlw	101	;'e'
   317  0313  346E               	retlw	110	;'n'
   318  0314  3464               	retlw	100	;'d'
   319  0315  3465               	retlw	101	;'e'
   320  0316  3472               	retlw	114	;'r'
   321  0317  3420               	retlw	32	;' '
   322  0318  3465               	retlw	101	;'e'
   323  0319  346C               	retlw	108	;'l'
   324  031A  3420               	retlw	32	;' '
   325  031B  346D               	retlw	109	;'m'
   326  031C  346F               	retlw	111	;'o'
   327  031D  3474               	retlw	116	;'t'
   328  031E  346F               	retlw	111	;'o'
   329  031F  3472               	retlw	114	;'r'
   330  0320  3420               	retlw	32	;' '
   331  0321  340D               	retlw	13
   332  0322  3400               	retlw	0
   333  0323                     STR_3:
   334  0323  340D               	retlw	13
   335  0324  3420               	retlw	32	;' '
   336  0325  3441               	retlw	65	;'A'
   337  0326  3470               	retlw	112	;'p'
   338  0327  3461               	retlw	97	;'a'
   339  0328  3463               	retlw	99	;'c'
   340  0329  3468               	retlw	104	;'h'
   341  032A  3465               	retlw	101	;'e'
   342  032B  3420               	retlw	32	;' '
   343  032C  3461               	retlw	97	;'a'
   344  032D  3420               	retlw	32	;' '
   345  032E  3470               	retlw	112	;'p'
   346  032F  3461               	retlw	97	;'a'
   347  0330  3472               	retlw	114	;'r'
   348  0331  3461               	retlw	97	;'a'
   349  0332  3420               	retlw	32	;' '
   350  0333  3467               	retlw	103	;'g'
   351  0334  3469               	retlw	105	;'i'
   352  0335  3472               	retlw	114	;'r'
   353  0336  3461               	retlw	97	;'a'
   354  0337  3472               	retlw	114	;'r'
   355  0338  3420               	retlw	32	;' '
   356  0339  3469               	retlw	105	;'i'
   357  033A  347A               	retlw	122	;'z'
   358  033B  3471               	retlw	113	;'q'
   359  033C  3475               	retlw	117	;'u'
   360  033D  3469               	retlw	105	;'i'
   361  033E  3465               	retlw	101	;'e'
   362  033F  3472               	retlw	114	;'r'
   363  0340  3464               	retlw	100	;'d'
   364  0341  3461               	retlw	97	;'a'
   365  0342  3420               	retlw	32	;' '
   366  0343  340D               	retlw	13
   367  0344  3400               	retlw	0
   368  0345                     STR_4:
   369  0345  340D               	retlw	13
   370  0346  3420               	retlw	32	;' '
   371  0347  3441               	retlw	65	;'A'
   372  0348  3470               	retlw	112	;'p'
   373  0349  3461               	retlw	97	;'a'
   374  034A  3463               	retlw	99	;'c'
   375  034B  3468               	retlw	104	;'h'
   376  034C  3465               	retlw	101	;'e'
   377  034D  3420               	retlw	32	;' '
   378  034E  3464               	retlw	100	;'d'
   379  034F  3420               	retlw	32	;' '
   380  0350  3470               	retlw	112	;'p'
   381  0351  3461               	retlw	97	;'a'
   382  0352  3472               	retlw	114	;'r'
   383  0353  3461               	retlw	97	;'a'
   384  0354  3420               	retlw	32	;' '
   385  0355  3467               	retlw	103	;'g'
   386  0356  3469               	retlw	105	;'i'
   387  0357  3472               	retlw	114	;'r'
   388  0358  3461               	retlw	97	;'a'
   389  0359  3472               	retlw	114	;'r'
   390  035A  3420               	retlw	32	;' '
   391  035B  3464               	retlw	100	;'d'
   392  035C  3465               	retlw	101	;'e'
   393  035D  3472               	retlw	114	;'r'
   394  035E  3465               	retlw	101	;'e'
   395  035F  3463               	retlw	99	;'c'
   396  0360  3468               	retlw	104	;'h'
   397  0361  3461               	retlw	97	;'a'
   398  0362  3420               	retlw	32	;' '
   399  0363  340D               	retlw	13
   400  0364  3400               	retlw	0
   401  0365                     STR_19:
   402  0365  340D               	retlw	13
   403  0366  3420               	retlw	32	;' '
   404  0367  3441               	retlw	65	;'A'
   405  0368  3470               	retlw	112	;'p'
   406  0369  3461               	retlw	97	;'a'
   407  036A  3463               	retlw	99	;'c'
   408  036B  3468               	retlw	104	;'h'
   409  036C  3465               	retlw	101	;'e'
   410  036D  3420               	retlw	32	;' '
   411  036E  3477               	retlw	119	;'w'
   412  036F  3420               	retlw	32	;' '
   413  0370  3470               	retlw	112	;'p'
   414  0371  3461               	retlw	97	;'a'
   415  0372  3472               	retlw	114	;'r'
   416  0373  3461               	retlw	97	;'a'
   417  0374  3420               	retlw	32	;' '
   418  0375  3470               	retlw	112	;'p'
   419  0376  3472               	retlw	114	;'r'
   420  0377  3465               	retlw	101	;'e'
   421  0378  346E               	retlw	110	;'n'
   422  0379  3464               	retlw	100	;'d'
   423  037A  3465               	retlw	101	;'e'
   424  037B  3472               	retlw	114	;'r'
   425  037C  3420               	retlw	32	;' '
   426  037D  346D               	retlw	109	;'m'
   427  037E  346F               	retlw	111	;'o'
   428  037F  3474               	retlw	116	;'t'
   429  0380  346F               	retlw	111	;'o'
   430  0381  3472               	retlw	114	;'r'
   431  0382  3420               	retlw	32	;' '
   432  0383  340D               	retlw	13
   433  0384  3400               	retlw	0
   434  0385                     STR_10:
   435  0385  340D               	retlw	13
   436  0386  3420               	retlw	32	;' '
   437  0387  3441               	retlw	65	;'A'
   438  0388  3470               	retlw	112	;'p'
   439  0389  3461               	retlw	97	;'a'
   440  038A  3463               	retlw	99	;'c'
   441  038B  3468               	retlw	104	;'h'
   442  038C  3465               	retlw	101	;'e'
   443  038D  3420               	retlw	32	;' '
   444  038E  3473               	retlw	115	;'s'
   445  038F  3420               	retlw	32	;' '
   446  0390  3461               	retlw	97	;'a'
   447  0391  3470               	retlw	112	;'p'
   448  0392  3461               	retlw	97	;'a'
   449  0393  3467               	retlw	103	;'g'
   450  0394  3461               	retlw	97	;'a'
   451  0395  3472               	retlw	114	;'r'
   452  0396  3420               	retlw	32	;' '
   453  0397  3465               	retlw	101	;'e'
   454  0398  346C               	retlw	108	;'l'
   455  0399  3420               	retlw	32	;' '
   456  039A  346D               	retlw	109	;'m'
   457  039B  346F               	retlw	111	;'o'
   458  039C  3474               	retlw	116	;'t'
   459  039D  346F               	retlw	111	;'o'
   460  039E  3472               	retlw	114	;'r'
   461  039F  3420               	retlw	32	;' '
   462  03A0  340D               	retlw	13
   463  03A1  3400               	retlw	0
   464  03A2                     STR_2:
   465  03A2  340D               	retlw	13
   466  03A3  3420               	retlw	32	;' '
   467  03A4  3441               	retlw	65	;'A'
   468  03A5  3470               	retlw	112	;'p'
   469  03A6  3461               	retlw	97	;'a'
   470  03A7  3463               	retlw	99	;'c'
   471  03A8  3468               	retlw	104	;'h'
   472  03A9  3465               	retlw	101	;'e'
   473  03AA  3420               	retlw	32	;' '
   474  03AB  3473               	retlw	115	;'s'
   475  03AC  3420               	retlw	32	;' '
   476  03AD  3470               	retlw	112	;'p'
   477  03AE  3461               	retlw	97	;'a'
   478  03AF  3472               	retlw	114	;'r'
   479  03B0  3461               	retlw	97	;'a'
   480  03B1  3420               	retlw	32	;' '
   481  03B2  3461               	retlw	97	;'a'
   482  03B3  3470               	retlw	112	;'p'
   483  03B4  3461               	retlw	97	;'a'
   484  03B5  3467               	retlw	103	;'g'
   485  03B6  3461               	retlw	97	;'a'
   486  03B7  3472               	retlw	114	;'r'
   487  03B8  3420               	retlw	32	;' '
   488  03B9  340D               	retlw	13
   489  03BA  3400               	retlw	0
   490  03BB                     STR_9:
   491  03BB  340D               	retlw	13
   492  03BC  3420               	retlw	32	;' '
   493  03BD  3447               	retlw	71	;'G'
   494  03BE  3469               	retlw	105	;'i'
   495  03BF  3472               	retlw	114	;'r'
   496  03C0  3461               	retlw	97	;'a'
   497  03C1  346E               	retlw	110	;'n'
   498  03C2  3464               	retlw	100	;'d'
   499  03C3  346F               	retlw	111	;'o'
   500  03C4  3420               	retlw	32	;' '
   501  03C5  3469               	retlw	105	;'i'
   502  03C6  347A               	retlw	122	;'z'
   503  03C7  3471               	retlw	113	;'q'
   504  03C8  3475               	retlw	117	;'u'
   505  03C9  3469               	retlw	105	;'i'
   506  03CA  3465               	retlw	101	;'e'
   507  03CB  3472               	retlw	114	;'r'
   508  03CC  3464               	retlw	100	;'d'
   509  03CD  3461               	retlw	97	;'a'
   510  03CE  3420               	retlw	32	;' '
   511  03CF  340D               	retlw	13
   512  03D0  3400               	retlw	0
   513  03D1                     STR_5:
   514  03D1  340D               	retlw	13
   515  03D2  3420               	retlw	32	;' '
   516  03D3  3453               	retlw	83	;'S'
   517  03D4  3465               	retlw	101	;'e'
   518  03D5  3420               	retlw	32	;' '
   519  03D6  3461               	retlw	97	;'a'
   520  03D7  3470               	retlw	112	;'p'
   521  03D8  3461               	retlw	97	;'a'
   522  03D9  3467               	retlw	103	;'g'
   523  03DA  346F               	retlw	111	;'o'
   524  03DB  3420               	retlw	32	;' '
   525  03DC  3465               	retlw	101	;'e'
   526  03DD  346C               	retlw	108	;'l'
   527  03DE  3420               	retlw	32	;' '
   528  03DF  346D               	retlw	109	;'m'
   529  03E0  346F               	retlw	111	;'o'
   530  03E1  3474               	retlw	116	;'t'
   531  03E2  346F               	retlw	111	;'o'
   532  03E3  3472               	retlw	114	;'r'
   533  03E4  3420               	retlw	32	;' '
   534  03E5  340D               	retlw	13
   535  03E6  3400               	retlw	0
   536  03E7                     STR_13:
   537  03E7  340D               	retlw	13
   538  03E8  3420               	retlw	32	;' '
   539  03E9  3447               	retlw	71	;'G'
   540  03EA  3469               	retlw	105	;'i'
   541  03EB  3472               	retlw	114	;'r'
   542  03EC  3461               	retlw	97	;'a'
   543  03ED  346E               	retlw	110	;'n'
   544  03EE  3464               	retlw	100	;'d'
   545  03EF  346F               	retlw	111	;'o'
   546  03F0  3420               	retlw	32	;' '
   547  03F1  3464               	retlw	100	;'d'
   548  03F2  3465               	retlw	101	;'e'
   549  03F3  3472               	retlw	114	;'r'
   550  03F4  3465               	retlw	101	;'e'
   551  03F5  3463               	retlw	99	;'c'
   552  03F6  3468               	retlw	104	;'h'
   553  03F7  3461               	retlw	97	;'a'
   554  03F8  3420               	retlw	32	;' '
   555  03F9  340D               	retlw	13
   556  03FA  3400               	retlw	0
   557  03FB                     STR_1:
   558  03FB  340D               	retlw	13
   559  03FC  3420               	retlw	32	;' '
   560  03FD  3443               	retlw	67	;'C'
   561  03FE  3461               	retlw	97	;'a'
   562  03FF  3472               	retlw	114	;'r'
   563  0400  3472               	retlw	114	;'r'
   564  0401  346F               	retlw	111	;'o'
   565  0402  3420               	retlw	32	;' '
   566  0403  3470               	retlw	112	;'p'
   567  0404  3472               	retlw	114	;'r'
   568  0405  3465               	retlw	101	;'e'
   569  0406  346E               	retlw	110	;'n'
   570  0407  3464               	retlw	100	;'d'
   571  0408  3469               	retlw	105	;'i'
   572  0409  3464               	retlw	100	;'d'
   573  040A  346F               	retlw	111	;'o'
   574  040B  3420               	retlw	32	;' '
   575  040C  340D               	retlw	13
   576  040D  3400               	retlw	0
   577  040E                     STR_17:
   578  040E  340D               	retlw	13
   579  040F  3420               	retlw	32	;' '
   580  0410  3447               	retlw	71	;'G'
   581  0411  3472               	retlw	114	;'r'
   582  0412  3461               	retlw	97	;'a'
   583  0413  3462               	retlw	98	;'b'
   584  0414  3461               	retlw	97	;'a'
   585  0415  346E               	retlw	110	;'n'
   586  0416  3464               	retlw	100	;'d'
   587  0417  346F               	retlw	111	;'o'
   588  0418  3420               	retlw	32	;' '
   589  0419  340D               	retlw	13
   590  041A  3400               	retlw	0
   591  041B                     STR_18:
   592  041B  340D               	retlw	13
   593  041C  3420               	retlw	32	;' '
   594  041D  3443               	retlw	67	;'C'
   595  041E  3461               	retlw	97	;'a'
   596  041F  3472               	retlw	114	;'r'
   597  0420  3467               	retlw	103	;'g'
   598  0421  3461               	retlw	97	;'a'
   599  0422  346E               	retlw	110	;'n'
   600  0423  3464               	retlw	100	;'d'
   601  0424  346F               	retlw	111	;'o'
   602  0425  3420               	retlw	32	;' '
   603  0426  340D               	retlw	13
   604  0427  3400               	retlw	0
   605  0323                     
   606                           	psect	cinit
   607  0015                     start_initialization:	
   608                           ; #config settings
   609                           
   610  0015                     __initialization:
   611                           
   612                           ; Clear objects allocated to COMMON
   613  0015  01F8               	clrf	__pbssCOMMON& (0+127)
   614  0016  01F9               	clrf	(__pbssCOMMON+1)& (0+127)
   615  0017  01FA               	clrf	(__pbssCOMMON+2)& (0+127)
   616  0018  01FB               	clrf	(__pbssCOMMON+3)& (0+127)
   617  0019  01FC               	clrf	(__pbssCOMMON+4)& (0+127)
   618                           
   619                           ; Clear objects allocated to BANK0
   620  001A  1383               	bcf	3,7	;select IRP bank0
   621  001B  3020               	movlw	low __pbssBANK0
   622  001C  0084               	movwf	4
   623  001D  3036               	movlw	low (__pbssBANK0+22)
   624  001E  120A  118A  25E6  120A  118A  	fcall	clear_ram0
   625  0023                     end_of_initialization:	
   626                           ;End of C runtime variable initialization code
   627                           
   628  0023                     __end_of__initialization:
   629  0023  0183               	clrf	3
   630  0024  120A  118A  2CAE   	ljmp	_main	;jump to C main() function
   631                           
   632                           	psect	bssCOMMON
   633  0078                     __pbssCOMMON:
   634  0078                     _val2:
   635  0078                     	ds	2
   636  007A                     _val1:
   637  007A                     	ds	2
   638  007C                     _val:
   639  007C                     	ds	1
   640                           
   641                           	psect	bssBANK0
   642  0020                     __pbssBANK0:
   643  0020                     _direccion:
   644  0020                     	ds	2
   645  0022                     _dato:
   646  0022                     	ds	2
   647  0024                     _lectura6:
   648  0024                     	ds	2
   649  0026                     _lectura5:
   650  0026                     	ds	2
   651  0028                     _lectura4:
   652  0028                     	ds	2
   653  002A                     _lectura3:
   654  002A                     	ds	2
   655  002C                     _lectura2:
   656  002C                     	ds	2
   657  002E                     _lectura1:
   658  002E                     	ds	2
   659  0030                     _val5:
   660  0030                     	ds	2
   661  0032                     _val4:
   662  0032                     	ds	2
   663  0034                     _val3:
   664  0034                     	ds	2
   665                           
   666                           	psect	clrtext
   667  05E6                     clear_ram0:	
   668                           ;	Called with FSR containing the base address, and
   669                           ;	W with the last address+1
   670                           
   671  05E6  0064               	clrwdt	;clear the watchdog before getting into this loop
   672  05E7                     clrloop0:
   673  05E7  0180               	clrf	0	;clear RAM location pointed to by FSR
   674  05E8  0A84               	incf	4,f	;increment pointer
   675  05E9  0604               	xorwf	4,w	;XOR with final address
   676  05EA  1903               	btfsc	3,2	;have we reached the end yet?
   677  05EB  3400               	retlw	0	;all done for this memory range, return
   678  05EC  0604               	xorwf	4,w	;XOR again to restore value
   679  05ED  2DE7               	goto	clrloop0	;do the next byte
   680                           
   681                           	psect	cstackCOMMON
   682  0070                     __pcstackCOMMON:
   683  0070                     ?_bitb1:
   684  0070                     ??_bitb1:	
   685                           ; 1 bytes @ 0x0
   686                           
   687  0070                     ?_bitb2:	
   688                           ; 1 bytes @ 0x0
   689                           
   690  0070                     ??_bitb2:	
   691                           ; 1 bytes @ 0x0
   692                           
   693  0070                     ?_bitb3:	
   694                           ; 1 bytes @ 0x0
   695                           
   696  0070                     ??_bitb3:	
   697                           ; 1 bytes @ 0x0
   698                           
   699  0070                     ?_write_eeprom:	
   700                           ; 1 bytes @ 0x0
   701                           
   702  0070                     ?_read_eeprom:	
   703                           ; 1 bytes @ 0x0
   704                           
   705  0070                     ?_setup:	
   706                           ; 1 bytes @ 0x0
   707                           
   708  0070                     ?_isr:	
   709                           ; 1 bytes @ 0x0
   710                           
   711  0070                     ?_main:	
   712                           ; 1 bytes @ 0x0
   713                           
   714  0070                     ?_putch:	
   715                           ; 1 bytes @ 0x0
   716                           
   717  0070                     ?i1_putch:	
   718                           ; 1 bytes @ 0x0
   719                           
   720  0070                     ??i1_putch:	
   721                           ; 1 bytes @ 0x0
   722                           
   723  0070                     i1putch@data:	
   724                           ; 1 bytes @ 0x0
   725                           
   726  0070                     write_eeprom@dato:	
   727                           ; 1 bytes @ 0x0
   728                           
   729  0070                     read_eeprom@direccion:	
   730                           ; 2 bytes @ 0x0
   731                           
   732                           
   733                           ; 2 bytes @ 0x0
   734  0070                     	ds	1
   735  0071                     ?i1_printf:
   736  0071                     i1printf@f:	
   737                           ; 2 bytes @ 0x1
   738                           
   739                           
   740                           ; 2 bytes @ 0x1
   741  0071                     	ds	1
   742  0072                     ??_read_eeprom:
   743  0072                     write_eeprom@direccion:	
   744                           ; 1 bytes @ 0x2
   745                           
   746                           
   747                           ; 2 bytes @ 0x2
   748  0072                     	ds	1
   749  0073                     ??i1_printf:
   750                           
   751                           ; 1 bytes @ 0x3
   752  0073                     	ds	1
   753  0074                     ??_write_eeprom:
   754  0074                     read_eeprom@dato:	
   755                           ; 1 bytes @ 0x4
   756                           
   757                           
   758                           ; 2 bytes @ 0x4
   759  0074                     	ds	2
   760  0076                     i1printf@ap:
   761                           
   762                           ; 1 bytes @ 0x6
   763  0076                     	ds	1
   764  0077                     i1printf@c:
   765                           
   766                           ; 1 bytes @ 0x7
   767  0077                     	ds	1
   768                           
   769                           	psect	cstackBANK0
   770  0036                     __pcstackBANK0:
   771  0036                     ??_isr:
   772                           
   773                           ; 1 bytes @ 0x0
   774  0036                     	ds	7
   775  003D                     ??_setup:
   776  003D                     ??_putch:	
   777                           ; 1 bytes @ 0x7
   778                           
   779  003D                     putch@data:	
   780                           ; 1 bytes @ 0x7
   781                           
   782                           
   783                           ; 1 bytes @ 0x7
   784  003D                     	ds	1
   785  003E                     ?_printf:
   786  003E                     printf@f:	
   787                           ; 2 bytes @ 0x8
   788                           
   789                           
   790                           ; 2 bytes @ 0x8
   791  003E                     	ds	2
   792  0040                     ??_printf:
   793                           
   794                           ; 1 bytes @ 0xA
   795  0040                     	ds	3
   796  0043                     printf@ap:
   797                           
   798                           ; 1 bytes @ 0xD
   799  0043                     	ds	1
   800  0044                     printf@c:
   801                           
   802                           ; 1 bytes @ 0xE
   803  0044                     	ds	1
   804  0045                     ??_main:
   805                           
   806                           ; 1 bytes @ 0xF
   807  0045                     	ds	1
   808                           
   809                           	psect	maintext
   810  04AE                     __pmaintext:	
   811 ;;
   812 ;;Main: autosize = 0, tempsize = 1, incstack = 0, save=0
   813 ;;
   814 ;; *************** function _main *****************
   815 ;; Defined at:
   816 ;;		line 180 in file "proyecto.c"
   817 ;; Parameters:    Size  Location     Type
   818 ;;		None
   819 ;; Auto vars:     Size  Location     Type
   820 ;;		None
   821 ;; Return value:  Size  Location     Type
   822 ;;                  1    wreg      void 
   823 ;; Registers used:
   824 ;;		wreg, fsr0l, fsr0h, status,2, status,0, btemp+1, pclath, cstack
   825 ;; Tracked objects:
   826 ;;		On entry : B00/0
   827 ;;		On exit  : 0/0
   828 ;;		Unchanged: 0/0
   829 ;; Data sizes:     COMMON   BANK0   BANK1   BANK3   BANK2
   830 ;;      Params:         0       0       0       0       0
   831 ;;      Locals:         0       0       0       0       0
   832 ;;      Temps:          0       1       0       0       0
   833 ;;      Totals:         0       1       0       0       0
   834 ;;Total ram usage:        1 bytes
   835 ;; Hardware stack levels required when called:    5
   836 ;; This function calls:
   837 ;;		_printf
   838 ;;		_setup
   839 ;; This function is called by:
   840 ;;		Startup code after reset
   841 ;; This function uses a non-reentrant model
   842 ;;
   843                           
   844                           
   845                           ;psect for function _main
   846  04AE                     _main:
   847  04AE                     l1415:	
   848                           ;incstack = 0
   849                           ; Regs used in _main: [wreg-fsr0h+status,2+status,0+btemp+1+pclath+cstack]
   850                           
   851                           
   852                           ;proyecto.c: 183:     setup();
   853  04AE  120A  118A  2428  120A  118A  	fcall	_setup
   854  04B3                     l1417:
   855                           
   856                           ;proyecto.c: 184:     ADCON0bits.GO = 1;
   857  04B3  1283               	bcf	3,5	;RP0=0, select bank0
   858  04B4  1303               	bcf	3,6	;RP1=0, select bank0
   859  04B5  149F               	bsf	31,1	;volatile
   860  04B6                     l1419:
   861                           
   862                           ;proyecto.c: 185:     PORTEbits.RE1 = 1;
   863  04B6  1489               	bsf	9,1	;volatile
   864  04B7                     l1421:
   865                           
   866                           ;proyecto.c: 186:     printf("\r Apache w para prender motor \r");
   867  04B7  3065               	movlw	low (STR_19| (0+32768))
   868  04B8  00BE               	movwf	printf@f
   869  04B9  3083               	movlw	high (STR_19| (0+32768))
   870  04BA  00BF               	movwf	printf@f+1
   871  04BB  120A  118A  24F2  120A  118A  	fcall	_printf
   872  04C0                     l1423:
   873                           
   874                           ;proyecto.c: 188:     {;proyecto.c: 190:         if (ADCON0bits.GO == 0)
   875  04C0  1283               	bcf	3,5	;RP0=0, select bank0
   876  04C1  1303               	bcf	3,6	;RP1=0, select bank0
   877  04C2  189F               	btfsc	31,1	;volatile
   878  04C3  2CC5               	goto	u521
   879  04C4  2CC6               	goto	u520
   880  04C5                     u521:
   881  04C5  2CC0               	goto	l1423
   882  04C6                     u520:
   883  04C6                     l1425:
   884                           
   885                           ;proyecto.c: 191:         {;proyecto.c: 192:             if(ADCON0bits.CHS == 0){
   886  04C6  0C1F               	rrf	31,w	;volatile
   887  04C7  00C5               	movwf	??_main
   888  04C8  0C45               	rrf	??_main,w
   889  04C9  390F               	andlw	15
   890  04CA  3A00               	xorlw	0
   891  04CB  1D03               	skipz
   892  04CC  2CCE               	goto	u531
   893  04CD  2CCF               	goto	u530
   894  04CE                     u531:
   895  04CE  2CD4               	goto	l1429
   896  04CF                     u530:
   897  04CF                     l1427:
   898                           
   899                           ;proyecto.c: 193:                 ADCON0bits.CHS =1;
   900  04CF  081F               	movf	31,w	;volatile
   901  04D0  39C3               	andlw	-61
   902  04D1  3804               	iorlw	4
   903  04D2  009F               	movwf	31	;volatile
   904                           
   905                           ;proyecto.c: 194:             }
   906  04D3  2CE4               	goto	l1435
   907  04D4                     l1429:
   908  04D4  0C1F               	rrf	31,w	;volatile
   909  04D5  00C5               	movwf	??_main
   910  04D6  0C45               	rrf	??_main,w
   911  04D7  390F               	andlw	15
   912  04D8  3A01               	xorlw	1
   913  04D9  1D03               	skipz
   914  04DA  2CDC               	goto	u541
   915  04DB  2CDD               	goto	u540
   916  04DC                     u541:
   917  04DC  2CE2               	goto	l1433
   918  04DD                     u540:
   919  04DD                     l1431:
   920                           
   921                           ;proyecto.c: 196:             {;proyecto.c: 197:                 ADCON0bits.CHS = 2;
   922  04DD  081F               	movf	31,w	;volatile
   923  04DE  39C3               	andlw	-61
   924  04DF  3808               	iorlw	8
   925  04E0  009F               	movwf	31	;volatile
   926                           
   927                           ;proyecto.c: 198:             }
   928  04E1  2CE4               	goto	l1435
   929  04E2                     l1433:
   930                           
   931                           ;proyecto.c: 200:                 ADCON0bits.CHS = 0;
   932  04E2  30C3               	movlw	-61
   933  04E3  059F               	andwf	31,f	;volatile
   934  04E4                     l1435:
   935                           
   936                           ;proyecto.c: 201:             _delay((unsigned long)((50)*(8000000/4000000.0)));
   937  04E4  3020               	movlw	32
   938  04E5  1283               	bcf	3,5	;RP0=0, select bank0
   939  04E6  1303               	bcf	3,6	;RP1=0, select bank0
   940  04E7  00C5               	movwf	??_main
   941  04E8                     u557:
   942  04E8  0BC5               	decfsz	??_main,f
   943  04E9  2CE8               	goto	u557
   944  04EA  0000               	nop
   945  04EB                     l1437:
   946                           
   947                           ;proyecto.c: 202:             ADCON0bits.GO = 1;
   948  04EB  1283               	bcf	3,5	;RP0=0, select bank0
   949  04EC  1303               	bcf	3,6	;RP1=0, select bank0
   950  04ED  149F               	bsf	31,1	;volatile
   951  04EE  2CC0               	goto	l1423
   952  04EF  120A  118A  2812   	ljmp	start
   953  04F2                     __end_of_main:
   954                           
   955                           	psect	text1
   956  0428                     __ptext1:	
   957 ;; *************** function _setup *****************
   958 ;; Defined at:
   959 ;;		line 216 in file "proyecto.c"
   960 ;; Parameters:    Size  Location     Type
   961 ;;		None
   962 ;; Auto vars:     Size  Location     Type
   963 ;;		None
   964 ;; Return value:  Size  Location     Type
   965 ;;                  1    wreg      void 
   966 ;; Registers used:
   967 ;;		wreg, status,2, status,0
   968 ;; Tracked objects:
   969 ;;		On entry : 0/0
   970 ;;		On exit  : 0/0
   971 ;;		Unchanged: 0/0
   972 ;; Data sizes:     COMMON   BANK0   BANK1   BANK3   BANK2
   973 ;;      Params:         0       0       0       0       0
   974 ;;      Locals:         0       0       0       0       0
   975 ;;      Temps:          0       1       0       0       0
   976 ;;      Totals:         0       1       0       0       0
   977 ;;Total ram usage:        1 bytes
   978 ;; Hardware stack levels used:    1
   979 ;; Hardware stack levels required when called:    3
   980 ;; This function calls:
   981 ;;		Nothing
   982 ;; This function is called by:
   983 ;;		_main
   984 ;; This function uses a non-reentrant model
   985 ;;
   986                           
   987                           
   988                           ;psect for function _setup
   989  0428                     _setup:
   990  0428                     l1183:	
   991                           ;incstack = 0
   992                           ; Regs used in _setup: [wreg+status,2+status,0]
   993                           
   994                           
   995                           ;proyecto.c: 218:     OSCCONbits.IRCF2 = 1;
   996  0428  1683               	bsf	3,5	;RP0=1, select bank1
   997  0429  1303               	bcf	3,6	;RP1=0, select bank1
   998  042A  170F               	bsf	15,6	;volatile
   999                           
  1000                           ;proyecto.c: 219:     OSCCONbits.IRCF1 = 1;
  1001  042B  168F               	bsf	15,5	;volatile
  1002                           
  1003                           ;proyecto.c: 220:     OSCCONbits.IRCF0 = 1;
  1004  042C  160F               	bsf	15,4	;volatile
  1005                           
  1006                           ;proyecto.c: 221:     OSCCONbits.SCS = 1;
  1007  042D  140F               	bsf	15,0	;volatile
  1008  042E                     l1185:
  1009                           
  1010                           ;proyecto.c: 224:     ANSEL = 0b00000111;
  1011  042E  3007               	movlw	7
  1012  042F  1683               	bsf	3,5	;RP0=1, select bank3
  1013  0430  1703               	bsf	3,6	;RP1=1, select bank3
  1014  0431  0088               	movwf	8	;volatile
  1015  0432                     l1187:
  1016                           
  1017                           ;proyecto.c: 225:     ANSELH = 0;
  1018  0432  0189               	clrf	9	;volatile
  1019  0433                     l1189:
  1020                           
  1021                           ;proyecto.c: 228:     TRISA = 0b00000111;
  1022  0433  3007               	movlw	7
  1023  0434  1683               	bsf	3,5	;RP0=1, select bank1
  1024  0435  1303               	bcf	3,6	;RP1=0, select bank1
  1025  0436  0085               	movwf	5	;volatile
  1026  0437                     l1191:
  1027                           
  1028                           ;proyecto.c: 230:     TRISBbits.TRISB0 = 1;
  1029  0437  1406               	bsf	6,0	;volatile
  1030  0438                     l1193:
  1031                           
  1032                           ;proyecto.c: 231:     TRISBbits.TRISB1 = 1;
  1033  0438  1486               	bsf	6,1	;volatile
  1034  0439                     l1195:
  1035                           
  1036                           ;proyecto.c: 233:     TRISBbits.TRISB3 = 1;
  1037  0439  1586               	bsf	6,3	;volatile
  1038  043A                     l1197:
  1039                           
  1040                           ;proyecto.c: 234:     TRISBbits.TRISB4 = 1;
  1041  043A  1606               	bsf	6,4	;volatile
  1042  043B                     l1199:
  1043                           
  1044                           ;proyecto.c: 235:     TRISBbits.TRISB5 = 1;
  1045  043B  1686               	bsf	6,5	;volatile
  1046  043C                     l1201:
  1047                           
  1048                           ;proyecto.c: 239:     TRISCbits.TRISC1 = 0;
  1049  043C  1087               	bcf	7,1	;volatile
  1050  043D                     l1203:
  1051                           
  1052                           ;proyecto.c: 240:     TRISCbits.TRISC2 = 0;
  1053  043D  1107               	bcf	7,2	;volatile
  1054  043E                     l1205:
  1055                           
  1056                           ;proyecto.c: 241:     TRISCbits.TRISC3 = 0;
  1057  043E  1187               	bcf	7,3	;volatile
  1058  043F                     l1207:
  1059                           
  1060                           ;proyecto.c: 242:     TRISCbits.TRISC6 = 0;
  1061  043F  1307               	bcf	7,6	;volatile
  1062  0440                     l1209:
  1063                           
  1064                           ;proyecto.c: 243:     TRISCbits.TRISC7 = 1;
  1065  0440  1787               	bsf	7,7	;volatile
  1066  0441                     l1211:
  1067                           
  1068                           ;proyecto.c: 247:     TRISDbits.TRISD0 = 0;
  1069  0441  1008               	bcf	8,0	;volatile
  1070  0442                     l1213:
  1071                           
  1072                           ;proyecto.c: 248:     TRISDbits.TRISD1 = 0;
  1073  0442  1088               	bcf	8,1	;volatile
  1074  0443                     l1215:
  1075                           
  1076                           ;proyecto.c: 251:     TRISEbits.TRISE0 = 0;
  1077  0443  1009               	bcf	9,0	;volatile
  1078  0444                     l1217:
  1079                           
  1080                           ;proyecto.c: 252:     TRISEbits.TRISE1 = 0;
  1081  0444  1089               	bcf	9,1	;volatile
  1082                           
  1083                           ;proyecto.c: 255:     PORTA = 0x00;
  1084  0445  1283               	bcf	3,5	;RP0=0, select bank0
  1085  0446  1303               	bcf	3,6	;RP1=0, select bank0
  1086  0447  0185               	clrf	5	;volatile
  1087                           
  1088                           ;proyecto.c: 256:     PORTB = 0x00;
  1089  0448  0186               	clrf	6	;volatile
  1090                           
  1091                           ;proyecto.c: 257:     PORTC = 0x00;
  1092  0449  0187               	clrf	7	;volatile
  1093                           
  1094                           ;proyecto.c: 258:     PORTD = 0x00;
  1095  044A  0188               	clrf	8	;volatile
  1096                           
  1097                           ;proyecto.c: 259:     PORTE = 0x00;
  1098  044B  0189               	clrf	9	;volatile
  1099  044C                     l1219:
  1100                           
  1101                           ;proyecto.c: 262:     OPTION_REGbits.nRBPU = 0;
  1102  044C  1683               	bsf	3,5	;RP0=1, select bank1
  1103  044D  1303               	bcf	3,6	;RP1=0, select bank1
  1104  044E  1381               	bcf	1,7	;volatile
  1105  044F                     l1221:
  1106                           
  1107                           ;proyecto.c: 263:     WPUB = 0b00000011;
  1108  044F  3003               	movlw	3
  1109  0450  0095               	movwf	21	;volatile
  1110  0451                     l1223:
  1111                           
  1112                           ;proyecto.c: 264:     IOCBbits.IOCB0 = 1;
  1113  0451  1416               	bsf	22,0	;volatile
  1114  0452                     l1225:
  1115                           
  1116                           ;proyecto.c: 265:     IOCBbits.IOCB1 = 1;
  1117  0452  1496               	bsf	22,1	;volatile
  1118  0453                     l1227:
  1119                           
  1120                           ;proyecto.c: 268:     ADCON1bits.ADFM = 0;
  1121  0453  139F               	bcf	31,7	;volatile
  1122  0454                     l1229:
  1123                           
  1124                           ;proyecto.c: 269:     ADCON1bits.VCFG0 = 0;
  1125  0454  121F               	bcf	31,4	;volatile
  1126  0455                     l1231:
  1127                           
  1128                           ;proyecto.c: 270:     ADCON1bits.VCFG1 = 0;
  1129  0455  129F               	bcf	31,5	;volatile
  1130  0456                     l1233:
  1131                           
  1132                           ;proyecto.c: 272:     ADCON0bits.ADCS = 0b10;
  1133  0456  1283               	bcf	3,5	;RP0=0, select bank0
  1134  0457  1303               	bcf	3,6	;RP1=0, select bank0
  1135  0458  081F               	movf	31,w	;volatile
  1136  0459  393F               	andlw	-193
  1137  045A  3880               	iorlw	128
  1138  045B  009F               	movwf	31	;volatile
  1139  045C                     l1235:
  1140                           
  1141                           ;proyecto.c: 273:     ADCON0bits.ADON = 1;
  1142  045C  141F               	bsf	31,0	;volatile
  1143  045D                     l1237:
  1144                           
  1145                           ;proyecto.c: 274:     ADCON0bits.CHS = 0;
  1146  045D  30C3               	movlw	-61
  1147  045E  059F               	andwf	31,f	;volatile
  1148  045F                     l1239:
  1149                           
  1150                           ;proyecto.c: 275:     _delay((unsigned long)((50)*(8000000/4000000.0)));
  1151  045F  3020               	movlw	32
  1152  0460  1283               	bcf	3,5	;RP0=0, select bank0
  1153  0461  1303               	bcf	3,6	;RP1=0, select bank0
  1154  0462  00BD               	movwf	??_setup
  1155  0463                     u567:
  1156  0463  0BBD               	decfsz	??_setup,f
  1157  0464  2C63               	goto	u567
  1158  0465  0000               	nop
  1159  0466                     l1241:
  1160                           
  1161                           ;proyecto.c: 278:     TRISCbits.TRISC2 = 1;
  1162  0466  1683               	bsf	3,5	;RP0=1, select bank1
  1163  0467  1303               	bcf	3,6	;RP1=0, select bank1
  1164  0468  1507               	bsf	7,2	;volatile
  1165  0469                     l1243:
  1166                           
  1167                           ;proyecto.c: 279:     TRISCbits.TRISC1 = 1;
  1168  0469  1487               	bsf	7,1	;volatile
  1169  046A                     l1245:
  1170                           
  1171                           ;proyecto.c: 280:     PR2 = 249;
  1172  046A  30F9               	movlw	249
  1173  046B  0092               	movwf	18	;volatile
  1174  046C                     l1247:
  1175                           
  1176                           ;proyecto.c: 281:     CCP1CONbits.P1M = 0;
  1177  046C  303F               	movlw	-193
  1178  046D  1283               	bcf	3,5	;RP0=0, select bank0
  1179  046E  1303               	bcf	3,6	;RP1=0, select bank0
  1180  046F  0597               	andwf	23,f	;volatile
  1181  0470                     l1249:
  1182                           
  1183                           ;proyecto.c: 282:     CCP1CONbits.CCP1M = 0b1100;
  1184  0470  0817               	movf	23,w	;volatile
  1185  0471  39F0               	andlw	-16
  1186  0472  380C               	iorlw	12
  1187  0473  0097               	movwf	23	;volatile
  1188  0474                     l1251:
  1189                           
  1190                           ;proyecto.c: 283:     CCPR1L = 0x0f;
  1191  0474  300F               	movlw	15
  1192  0475  0095               	movwf	21	;volatile
  1193  0476                     l1253:
  1194                           
  1195                           ;proyecto.c: 284:     CCP2CONbits.CCP2M = 0b1100;
  1196  0476  081D               	movf	29,w	;volatile
  1197  0477  39F0               	andlw	-16
  1198  0478  380C               	iorlw	12
  1199  0479  009D               	movwf	29	;volatile
  1200  047A                     l1255:
  1201                           
  1202                           ;proyecto.c: 285:     CCPR2L = 0x0f;
  1203  047A  300F               	movlw	15
  1204  047B  009B               	movwf	27	;volatile
  1205  047C                     l1257:
  1206                           
  1207                           ;proyecto.c: 287:     CCP1CONbits.DC1B = 0;
  1208  047C  30CF               	movlw	-49
  1209  047D  0597               	andwf	23,f	;volatile
  1210  047E                     l1259:
  1211                           
  1212                           ;proyecto.c: 288:     CCP2CONbits.DC2B0 = 0;
  1213  047E  121D               	bcf	29,4	;volatile
  1214  047F                     l1261:
  1215                           
  1216                           ;proyecto.c: 289:     CCP2CONbits.DC2B1 = 0;
  1217  047F  129D               	bcf	29,5	;volatile
  1218  0480                     l1263:
  1219                           
  1220                           ;proyecto.c: 291:     PIR1bits.TMR2IF = 0;
  1221  0480  108C               	bcf	12,1	;volatile
  1222  0481                     l1265:
  1223                           
  1224                           ;proyecto.c: 292:     T2CONbits.T2CKPS = 0b11;
  1225  0481  3003               	movlw	3
  1226  0482  0492               	iorwf	18,f	;volatile
  1227  0483                     l1267:
  1228                           
  1229                           ;proyecto.c: 293:     T2CONbits.TMR2ON = 1;
  1230  0483  1512               	bsf	18,2	;volatile
  1231  0484                     l188:	
  1232                           ;proyecto.c: 295:     while(PIR1bits.TMR2IF == 0);
  1233                           
  1234  0484  1C8C               	btfss	12,1	;volatile
  1235  0485  2C87               	goto	u321
  1236  0486  2C88               	goto	u320
  1237  0487                     u321:
  1238  0487  2C84               	goto	l188
  1239  0488                     u320:
  1240  0488                     l190:
  1241                           
  1242                           ;proyecto.c: 296:     PIR1bits.TMR2IF = 0;
  1243  0488  108C               	bcf	12,1	;volatile
  1244                           
  1245                           ;proyecto.c: 297:     TRISCbits.TRISC2 = 0;
  1246  0489  1683               	bsf	3,5	;RP0=1, select bank1
  1247  048A  1303               	bcf	3,6	;RP1=0, select bank1
  1248  048B  1107               	bcf	7,2	;volatile
  1249                           
  1250                           ;proyecto.c: 298:     TRISCbits.TRISC1 = 0;
  1251  048C  1087               	bcf	7,1	;volatile
  1252                           
  1253                           ;proyecto.c: 301:     INTCONbits.GIE = 1;
  1254  048D  178B               	bsf	11,7	;volatile
  1255                           
  1256                           ;proyecto.c: 302:     INTCONbits.PEIE = 1;
  1257  048E  170B               	bsf	11,6	;volatile
  1258                           
  1259                           ;proyecto.c: 303:     PIE1bits.ADIE = 1;
  1260  048F  170C               	bsf	12,6	;volatile
  1261                           
  1262                           ;proyecto.c: 304:     PIR1bits.ADIF = 0;
  1263  0490  1283               	bcf	3,5	;RP0=0, select bank0
  1264  0491  1303               	bcf	3,6	;RP1=0, select bank0
  1265  0492  130C               	bcf	12,6	;volatile
  1266                           
  1267                           ;proyecto.c: 305:     INTCONbits.RBIF = 1;
  1268  0493  140B               	bsf	11,0	;volatile
  1269                           
  1270                           ;proyecto.c: 306:     INTCONbits.RBIE = 1;
  1271  0494  158B               	bsf	11,3	;volatile
  1272                           
  1273                           ;proyecto.c: 308:     TXSTAbits.SYNC = 0;
  1274  0495  1683               	bsf	3,5	;RP0=1, select bank1
  1275  0496  1303               	bcf	3,6	;RP1=0, select bank1
  1276  0497  1218               	bcf	24,4	;volatile
  1277                           
  1278                           ;proyecto.c: 309:     TXSTAbits.BRGH = 1;
  1279  0498  1518               	bsf	24,2	;volatile
  1280                           
  1281                           ;proyecto.c: 310:     BAUDCTLbits.BRG16 = 1;
  1282  0499  1683               	bsf	3,5	;RP0=1, select bank3
  1283  049A  1703               	bsf	3,6	;RP1=1, select bank3
  1284  049B  1587               	bsf	7,3	;volatile
  1285  049C                     l1269:
  1286                           
  1287                           ;proyecto.c: 312:     SPBRG = 210;
  1288  049C  30D2               	movlw	210
  1289  049D  1683               	bsf	3,5	;RP0=1, select bank1
  1290  049E  1303               	bcf	3,6	;RP1=0, select bank1
  1291  049F  0099               	movwf	25	;volatile
  1292  04A0                     l1271:
  1293                           
  1294                           ;proyecto.c: 313:     SPBRGH = 0;
  1295  04A0  019A               	clrf	26	;volatile
  1296  04A1                     l1273:
  1297                           
  1298                           ;proyecto.c: 315:     RCSTAbits.SPEN = 1;
  1299  04A1  1283               	bcf	3,5	;RP0=0, select bank0
  1300  04A2  1303               	bcf	3,6	;RP1=0, select bank0
  1301  04A3  1798               	bsf	24,7	;volatile
  1302  04A4                     l1275:
  1303                           
  1304                           ;proyecto.c: 316:     RCSTAbits.RX9 = 0;
  1305  04A4  1318               	bcf	24,6	;volatile
  1306  04A5                     l1277:
  1307                           
  1308                           ;proyecto.c: 317:     RCSTAbits.CREN = 1;
  1309  04A5  1618               	bsf	24,4	;volatile
  1310  04A6                     l1279:
  1311                           
  1312                           ;proyecto.c: 319:     TXSTAbits.TXEN = 1;
  1313  04A6  1683               	bsf	3,5	;RP0=1, select bank1
  1314  04A7  1303               	bcf	3,6	;RP1=0, select bank1
  1315  04A8  1698               	bsf	24,5	;volatile
  1316  04A9                     l1281:
  1317                           
  1318                           ;proyecto.c: 321:     PIR1bits.RCIF = 0;
  1319  04A9  1283               	bcf	3,5	;RP0=0, select bank0
  1320  04AA  1303               	bcf	3,6	;RP1=0, select bank0
  1321  04AB  128C               	bcf	12,5	;volatile
  1322  04AC                     l1283:
  1323                           
  1324                           ;proyecto.c: 322:     PIR1bits.TXIF = 0;
  1325  04AC  120C               	bcf	12,4	;volatile
  1326  04AD                     l191:
  1327  04AD  0008               	return
  1328  04AE                     __end_of_setup:
  1329                           
  1330                           	psect	text2
  1331  04F2                     __ptext2:	
  1332 ;; *************** function _printf *****************
  1333 ;; Defined at:
  1334 ;;		line 477 in file "C:\Program Files\Microchip\xc8\v2.31\pic\sources\c90\common\doprnt.c"
  1335 ;; Parameters:    Size  Location     Type
  1336 ;;  f               2    8[BANK0 ] PTR const unsigned char 
  1337 ;;		 -> STR_19(32), STR_18(13), STR_17(13), STR_16(32), 
  1338 ;;		 -> STR_15(34), STR_14(29), STR_13(20), STR_12(32), 
  1339 ;;		 -> STR_11(34), STR_10(29), STR_9(22), STR_8(32), 
  1340 ;;		 -> STR_7(34), STR_6(35), STR_5(22), STR_4(32), 
  1341 ;;		 -> STR_3(34), STR_2(25), STR_1(19), 
  1342 ;; Auto vars:     Size  Location     Type
  1343 ;;  tmpval          4    0        struct .
  1344 ;;  cp              2    0        PTR const unsigned char 
  1345 ;;  len             2    0        unsigned int 
  1346 ;;  val             2    0        unsigned int 
  1347 ;;  c               1   14[BANK0 ] unsigned char 
  1348 ;;  ap              1   13[BANK0 ] PTR void [1]
  1349 ;;		 -> ?_printf(2), 
  1350 ;;  flag            1    0        unsigned char 
  1351 ;;  prec            1    0        char 
  1352 ;; Return value:  Size  Location     Type
  1353 ;;                  2    8[BANK0 ] int 
  1354 ;; Registers used:
  1355 ;;		wreg, fsr0l, fsr0h, status,2, status,0, btemp+1, pclath, cstack
  1356 ;; Tracked objects:
  1357 ;;		On entry : 0/0
  1358 ;;		On exit  : 0/0
  1359 ;;		Unchanged: 0/0
  1360 ;; Data sizes:     COMMON   BANK0   BANK1   BANK3   BANK2
  1361 ;;      Params:         0       2       0       0       0
  1362 ;;      Locals:         0       2       0       0       0
  1363 ;;      Temps:          0       3       0       0       0
  1364 ;;      Totals:         0       7       0       0       0
  1365 ;;Total ram usage:        7 bytes
  1366 ;; Hardware stack levels used:    1
  1367 ;; Hardware stack levels required when called:    4
  1368 ;; This function calls:
  1369 ;;		_putch
  1370 ;; This function is called by:
  1371 ;;		_main
  1372 ;; This function uses a non-reentrant model
  1373 ;;
  1374                           
  1375                           
  1376                           ;psect for function _printf
  1377  04F2                     _printf:
  1378  04F2                     l1155:	
  1379                           ;incstack = 0
  1380                           ; Regs used in _printf: [wreg-fsr0h+status,2+status,0+btemp+1+pclath+cstack]
  1381                           
  1382                           
  1383                           ;C:\Program Files\Microchip\xc8\v2.31\pic\sources\c90\common\doprnt.c: 477: printf(const
      +                           char * f, ...);C:\Program Files\Microchip\xc8\v2.31\pic\sources\c90\common\doprnt.c: 47
      +                          8: {;C:\Program Files\Microchip\xc8\v2.31\pic\sources\c90\common\doprnt.c: 479:  va_list
      +                           ap;;C:\Program Files\Microchip\xc8\v2.31\pic\sources\c90\common\doprnt.c: 512:  char c;
      +                          ;C:\Program Files\Microchip\xc8\v2.31\pic\sources\c90\common\doprnt.c: 521:  signed char
      +                           prec;;C:\Program Files\Microchip\xc8\v2.31\pic\sources\c90\common\doprnt.c: 525:  unsig
      +                          ned char flag;
  1384  04F2  3040               	movlw	(low ((?_printf| 0+2)))& (0+255)
  1385  04F3  1283               	bcf	3,5	;RP0=0, select bank0
  1386  04F4  1303               	bcf	3,6	;RP1=0, select bank0
  1387  04F5  00C0               	movwf	??_printf
  1388  04F6  0840               	movf	??_printf,w
  1389  04F7  00C3               	movwf	printf@ap
  1390                           
  1391                           ;C:\Program Files\Microchip\xc8\v2.31\pic\sources\c90\common\doprnt.c: 553:  while((c = 
      +                          *f++)) {
  1392  04F8  2CFF               	goto	l1159
  1393  04F9                     l1157:
  1394                           
  1395                           ;C:\Program Files\Microchip\xc8\v2.31\pic\sources\c90\common\doprnt.c: 557:   {;C:\Progr
      +                          am Files\Microchip\xc8\v2.31\pic\sources\c90\common\doprnt.c: 558:    (putch(c) );
  1396  04F9  0844               	movf	printf@c,w
  1397  04FA  120A  118A  25D2  120A  118A  	fcall	_putch
  1398  04FF                     l1159:	
  1399                           ;C:\Program Files\Microchip\xc8\v2.31\pic\sources\c90\common\doprnt.c: 559:    continue;
  1400                           
  1401                           
  1402                           ;C:\Program Files\Microchip\xc8\v2.31\pic\sources\c90\common\doprnt.c: 553:  while((c = 
      +                          *f++)) {
  1403  04FF  1283               	bcf	3,5	;RP0=0, select bank0
  1404  0500  1303               	bcf	3,6	;RP1=0, select bank0
  1405  0501  083F               	movf	printf@f+1,w
  1406  0502  00C1               	movwf	??_printf+1
  1407  0503  083E               	movf	printf@f,w
  1408  0504  00C0               	movwf	??_printf
  1409  0505  0ABE               	incf	printf@f,f
  1410  0506  1903               	skipnz
  1411  0507  0ABF               	incf	printf@f+1,f
  1412  0508  0841               	movf	??_printf+1,w
  1413  0509  00FF               	movwf	btemp+1
  1414  050A  0840               	movf	??_printf,w
  1415  050B  0084               	movwf	4
  1416  050C  120A  118A  25C0  120A  118A  	fcall	stringtab
  1417  0511  00C2               	movwf	??_printf+2
  1418  0512  0842               	movf	??_printf+2,w
  1419  0513  00C4               	movwf	printf@c
  1420  0514  0844               	movf	printf@c,w
  1421  0515  1D03               	btfss	3,2
  1422  0516  2D18               	goto	u301
  1423  0517  2D19               	goto	u300
  1424  0518                     u301:
  1425  0518  2CF9               	goto	l1157
  1426  0519                     u300:
  1427  0519                     l301:
  1428  0519  0008               	return
  1429  051A                     __end_of_printf:
  1430                           
  1431                           	psect	text3
  1432  05D2                     __ptext3:	
  1433 ;; *************** function _putch *****************
  1434 ;; Defined at:
  1435 ;;		line 208 in file "proyecto.c"
  1436 ;; Parameters:    Size  Location     Type
  1437 ;;  data            1    wreg     unsigned char 
  1438 ;; Auto vars:     Size  Location     Type
  1439 ;;  data            1    7[BANK0 ] unsigned char 
  1440 ;; Return value:  Size  Location     Type
  1441 ;;                  1    wreg      void 
  1442 ;; Registers used:
  1443 ;;		wreg
  1444 ;; Tracked objects:
  1445 ;;		On entry : 0/0
  1446 ;;		On exit  : 0/0
  1447 ;;		Unchanged: 0/0
  1448 ;; Data sizes:     COMMON   BANK0   BANK1   BANK3   BANK2
  1449 ;;      Params:         0       0       0       0       0
  1450 ;;      Locals:         0       1       0       0       0
  1451 ;;      Temps:          0       0       0       0       0
  1452 ;;      Totals:         0       1       0       0       0
  1453 ;;Total ram usage:        1 bytes
  1454 ;; Hardware stack levels used:    1
  1455 ;; Hardware stack levels required when called:    3
  1456 ;; This function calls:
  1457 ;;		Nothing
  1458 ;; This function is called by:
  1459 ;;		_printf
  1460 ;; This function uses a non-reentrant model
  1461 ;;
  1462                           
  1463                           
  1464                           ;psect for function _putch
  1465  05D2                     _putch:
  1466                           
  1467                           ;incstack = 0
  1468                           ; Regs used in _putch: [wreg]
  1469                           ;putch@data stored from wreg
  1470  05D2  1283               	bcf	3,5	;RP0=0, select bank0
  1471  05D3  1303               	bcf	3,6	;RP1=0, select bank0
  1472  05D4  00BD               	movwf	putch@data
  1473  05D5                     l1125:
  1474  05D5                     l182:	
  1475                           ;proyecto.c: 209:     while(TXIF == 0);
  1476                           
  1477  05D5  1E0C               	btfss	12,4	;volatile
  1478  05D6  2DD8               	goto	u281
  1479  05D7  2DD9               	goto	u280
  1480  05D8                     u281:
  1481  05D8  2DD5               	goto	l182
  1482  05D9                     u280:
  1483  05D9                     l1127:
  1484                           
  1485                           ;proyecto.c: 210:     TXREG = data;
  1486  05D9  083D               	movf	putch@data,w
  1487  05DA  0099               	movwf	25	;volatile
  1488  05DB                     l185:
  1489  05DB  0008               	return
  1490  05DC                     __end_of_putch:
  1491                           
  1492                           	psect	text4
  1493  0027                     __ptext4:	
  1494 ;; *************** function _isr *****************
  1495 ;; Defined at:
  1496 ;;		line 60 in file "proyecto.c"
  1497 ;; Parameters:    Size  Location     Type
  1498 ;;		None
  1499 ;; Auto vars:     Size  Location     Type
  1500 ;;		None
  1501 ;; Return value:  Size  Location     Type
  1502 ;;                  1    wreg      void 
  1503 ;; Registers used:
  1504 ;;		wreg, fsr0l, fsr0h, status,2, status,0, btemp+1, pclath, cstack
  1505 ;; Tracked objects:
  1506 ;;		On entry : 0/0
  1507 ;;		On exit  : 0/0
  1508 ;;		Unchanged: 0/0
  1509 ;; Data sizes:     COMMON   BANK0   BANK1   BANK3   BANK2
  1510 ;;      Params:         0       0       0       0       0
  1511 ;;      Locals:         0       0       0       0       0
  1512 ;;      Temps:          0       7       0       0       0
  1513 ;;      Totals:         0       7       0       0       0
  1514 ;;Total ram usage:        7 bytes
  1515 ;; Hardware stack levels used:    1
  1516 ;; Hardware stack levels required when called:    2
  1517 ;; This function calls:
  1518 ;;		_bitb1
  1519 ;;		_bitb2
  1520 ;;		_bitb3
  1521 ;;		_read_eeprom
  1522 ;;		_write_eeprom
  1523 ;;		i1_printf
  1524 ;; This function is called by:
  1525 ;;		Interrupt level 1
  1526 ;; This function uses a non-reentrant model
  1527 ;;
  1528                           
  1529                           
  1530                           ;psect for function _isr
  1531  0027                     _isr:
  1532  0027                     i1l1291:
  1533                           
  1534                           ;proyecto.c: 62:     if(PIR1bits.ADIF == 1)
  1535  0027  1F0C               	btfss	12,6	;volatile
  1536  0028  282A               	goto	u34_21
  1537  0029  282B               	goto	u34_20
  1538  002A                     u34_21:
  1539  002A  2891               	goto	i1l1323
  1540  002B                     u34_20:
  1541  002B                     i1l1293:
  1542                           
  1543                           ;proyecto.c: 63:        {;proyecto.c: 64:         if(ADCON0bits.CHS == 0){
  1544  002B  0C1F               	rrf	31,w	;volatile
  1545  002C  00B6               	movwf	??_isr
  1546  002D  0C36               	rrf	??_isr,w
  1547  002E  390F               	andlw	15
  1548  002F  3A00               	xorlw	0
  1549  0030  1D03               	skipz
  1550  0031  2833               	goto	u35_21
  1551  0032  2834               	goto	u35_20
  1552  0033                     u35_21:
  1553  0033  2842               	goto	i1l1299
  1554  0034                     u35_20:
  1555  0034                     i1l1295:
  1556                           
  1557                           ;proyecto.c: 65:             CCPR1L = (ADRESH >> 1) + 124;
  1558  0034  081E               	movf	30,w	;volatile
  1559  0035  00B6               	movwf	??_isr
  1560  0036  1003               	clrc
  1561  0037  0C36               	rrf	??_isr,w
  1562  0038  3E7C               	addlw	124
  1563  0039  0095               	movwf	21	;volatile
  1564  003A                     i1l1297:
  1565                           
  1566                           ;proyecto.c: 66:             val1 = ADRESH;
  1567  003A  081E               	movf	30,w	;volatile
  1568  003B  00B6               	movwf	??_isr
  1569  003C  01B7               	clrf	??_isr+1
  1570  003D  0836               	movf	??_isr,w
  1571  003E  00FA               	movwf	_val1
  1572  003F  0837               	movf	??_isr+1,w
  1573  0040  00FB               	movwf	_val1+1
  1574                           
  1575                           ;proyecto.c: 67:         }
  1576  0041  288E               	goto	i1l1321
  1577  0042                     i1l1299:
  1578  0042  0C1F               	rrf	31,w	;volatile
  1579  0043  00B6               	movwf	??_isr
  1580  0044  0C36               	rrf	??_isr,w
  1581  0045  390F               	andlw	15
  1582  0046  3A01               	xorlw	1
  1583  0047  1D03               	skipz
  1584  0048  284A               	goto	u36_21
  1585  0049  284B               	goto	u36_20
  1586  004A                     u36_21:
  1587  004A  2859               	goto	i1l1305
  1588  004B                     u36_20:
  1589  004B                     i1l1301:
  1590                           
  1591                           ;proyecto.c: 69:             CCPR2L = (ADRESH >> 1) + 124;
  1592  004B  081E               	movf	30,w	;volatile
  1593  004C  00B6               	movwf	??_isr
  1594  004D  1003               	clrc
  1595  004E  0C36               	rrf	??_isr,w
  1596  004F  3E7C               	addlw	124
  1597  0050  009B               	movwf	27	;volatile
  1598  0051                     i1l1303:
  1599                           
  1600                           ;proyecto.c: 70:             val2 = ADRESH;
  1601  0051  081E               	movf	30,w	;volatile
  1602  0052  00B6               	movwf	??_isr
  1603  0053  01B7               	clrf	??_isr+1
  1604  0054  0836               	movf	??_isr,w
  1605  0055  00F8               	movwf	_val2
  1606  0056  0837               	movf	??_isr+1,w
  1607  0057  00F9               	movwf	_val2+1
  1608                           
  1609                           ;proyecto.c: 71:         }
  1610  0058  288E               	goto	i1l1321
  1611  0059                     i1l1305:
  1612  0059  0C1F               	rrf	31,w	;volatile
  1613  005A  00B6               	movwf	??_isr
  1614  005B  0C36               	rrf	??_isr,w
  1615  005C  390F               	andlw	15
  1616  005D  3A02               	xorlw	2
  1617  005E  1D03               	skipz
  1618  005F  2861               	goto	u37_21
  1619  0060  2862               	goto	u37_20
  1620  0061                     u37_21:
  1621  0061  288E               	goto	i1l1321
  1622  0062                     u37_20:
  1623  0062                     i1l1307:
  1624                           
  1625                           ;proyecto.c: 73:         {;proyecto.c: 74:                val = ADRESH;
  1626  0062  081E               	movf	30,w	;volatile
  1627  0063  00B6               	movwf	??_isr
  1628  0064  0836               	movf	??_isr,w
  1629  0065  00FC               	movwf	_val
  1630                           
  1631                           ;proyecto.c: 75:             if (val <= 85){
  1632  0066  3056               	movlw	86
  1633  0067  027C               	subwf	_val,w
  1634  0068  1803               	skipnc
  1635  0069  286B               	goto	u38_21
  1636  006A  286C               	goto	u38_20
  1637  006B                     u38_21:
  1638  006B  2871               	goto	i1l1311
  1639  006C                     u38_20:
  1640  006C                     i1l1309:
  1641                           
  1642                           ;proyecto.c: 76:                 bitb1();
  1643  006C  120A  118A  2594  120A  118A  	fcall	_bitb1
  1644  0071                     i1l1311:
  1645                           
  1646                           ;proyecto.c: 78:            if ((val <= 170)&&(val >= 86)){
  1647  0071  30AB               	movlw	171
  1648  0072  027C               	subwf	_val,w
  1649  0073  1803               	skipnc
  1650  0074  2876               	goto	u39_21
  1651  0075  2877               	goto	u39_20
  1652  0076                     u39_21:
  1653  0076  2882               	goto	i1l1317
  1654  0077                     u39_20:
  1655  0077                     i1l1313:
  1656  0077  3056               	movlw	86
  1657  0078  027C               	subwf	_val,w
  1658  0079  1C03               	skipc
  1659  007A  287C               	goto	u40_21
  1660  007B  287D               	goto	u40_20
  1661  007C                     u40_21:
  1662  007C  2882               	goto	i1l1317
  1663  007D                     u40_20:
  1664  007D                     i1l1315:
  1665                           
  1666                           ;proyecto.c: 79:                 bitb2();
  1667  007D  120A  118A  257B  120A  118A  	fcall	_bitb2
  1668  0082                     i1l1317:
  1669                           
  1670                           ;proyecto.c: 81:             if (val >= 171){
  1671  0082  30AB               	movlw	171
  1672  0083  027C               	subwf	_val,w
  1673  0084  1C03               	skipc
  1674  0085  2887               	goto	u41_21
  1675  0086  2888               	goto	u41_20
  1676  0087                     u41_21:
  1677  0087  288E               	goto	i1l149
  1678  0088                     u41_20:
  1679  0088                     i1l1319:
  1680                           
  1681                           ;proyecto.c: 82:                 bitb3();
  1682  0088  120A  118A  2562  120A  118A  	fcall	_bitb3
  1683  008D  288E               	goto	i1l1321
  1684  008E                     i1l149:
  1685  008E                     i1l1321:
  1686                           
  1687                           ;proyecto.c: 85:            PIR1bits.ADIF = 0;
  1688  008E  1283               	bcf	3,5	;RP0=0, select bank0
  1689  008F  1303               	bcf	3,6	;RP1=0, select bank0
  1690  0090  130C               	bcf	12,6	;volatile
  1691  0091                     i1l1323:
  1692                           
  1693                           ;proyecto.c: 89:     if (RCIF == 1) {
  1694  0091  1E8C               	btfss	12,5	;volatile
  1695  0092  2894               	goto	u42_21
  1696  0093  2895               	goto	u42_20
  1697  0094                     u42_21:
  1698  0094  2AA3               	goto	i1l154
  1699  0095                     u42_20:
  1700  0095                     i1l1325:
  1701                           
  1702                           ;proyecto.c: 90:     if (RCREG == 'w'){
  1703  0095  3077               	movlw	119
  1704  0096  061A               	xorwf	26,w	;volatile
  1705  0097  1D03               	btfss	3,2
  1706  0098  289A               	goto	u43_21
  1707  0099  289B               	goto	u43_20
  1708  009A                     u43_21:
  1709  009A  28D2               	goto	i1l1343
  1710  009B                     u43_20:
  1711  009B                     i1l1327:
  1712                           
  1713                           ;proyecto.c: 91:         _delay((unsigned long)((500)*(8000000/4000.0)));
  1714  009B  3006               	movlw	6
  1715  009C  1283               	bcf	3,5	;RP0=0, select bank0
  1716  009D  1303               	bcf	3,6	;RP1=0, select bank0
  1717  009E  00B8               	movwf	??_isr+2
  1718  009F  3013               	movlw	19
  1719  00A0  00B7               	movwf	??_isr+1
  1720  00A1  30AD               	movlw	173
  1721  00A2  00B6               	movwf	??_isr
  1722  00A3                     u57_27:
  1723  00A3  0BB6               	decfsz	??_isr,f
  1724  00A4  28A3               	goto	u57_27
  1725  00A5  0BB7               	decfsz	??_isr+1,f
  1726  00A6  28A3               	goto	u57_27
  1727  00A7  0BB8               	decfsz	??_isr+2,f
  1728  00A8  28A3               	goto	u57_27
  1729  00A9                     i1l1329:
  1730                           
  1731                           ;proyecto.c: 92:         printf("\r Carro prendido \r");
  1732  00A9  30FB               	movlw	low (STR_1| (0+32768))
  1733  00AA  00F1               	movwf	i1printf@f
  1734  00AB  3083               	movlw	high (STR_1| (0+32768))
  1735  00AC  00F2               	movwf	i1printf@f+1
  1736  00AD  120A  118A  251A  120A  118A  	fcall	i1_printf
  1737  00B2                     i1l1331:
  1738                           
  1739                           ;proyecto.c: 93:         PORTDbits.RD0 = 1;
  1740  00B2  1283               	bcf	3,5	;RP0=0, select bank0
  1741  00B3  1303               	bcf	3,6	;RP1=0, select bank0
  1742  00B4  1408               	bsf	8,0	;volatile
  1743  00B5                     i1l1333:
  1744                           
  1745                           ;proyecto.c: 94:         PORTEbits.RE0 = 1;
  1746  00B5  1409               	bsf	9,0	;volatile
  1747  00B6                     i1l1335:
  1748                           
  1749                           ;proyecto.c: 95:         PORTEbits.RE1 = 0;
  1750  00B6  1089               	bcf	9,1	;volatile
  1751  00B7                     i1l1337:
  1752                           
  1753                           ;proyecto.c: 96:         printf("\r Apache s para apagar \r");
  1754  00B7  30A2               	movlw	low (STR_2| (0+32768))
  1755  00B8  00F1               	movwf	i1printf@f
  1756  00B9  3083               	movlw	high (STR_2| (0+32768))
  1757  00BA  00F2               	movwf	i1printf@f+1
  1758  00BB  120A  118A  251A  120A  118A  	fcall	i1_printf
  1759  00C0                     i1l1339:
  1760                           
  1761                           ;proyecto.c: 97:         printf("\r Apache a para girar izquierda \r");
  1762  00C0  3023               	movlw	low (STR_3| (0+32768))
  1763  00C1  00F1               	movwf	i1printf@f
  1764  00C2  3083               	movlw	high (STR_3| (0+32768))
  1765  00C3  00F2               	movwf	i1printf@f+1
  1766  00C4  120A  118A  251A  120A  118A  	fcall	i1_printf
  1767  00C9                     i1l1341:
  1768                           
  1769                           ;proyecto.c: 98:         printf("\r Apache d para girar derecha \r");}
  1770  00C9  3045               	movlw	low (STR_4| (0+32768))
  1771  00CA  00F1               	movwf	i1printf@f
  1772  00CB  3083               	movlw	high (STR_4| (0+32768))
  1773  00CC  00F2               	movwf	i1printf@f+1
  1774  00CD  120A  118A  251A  120A  118A  	fcall	i1_printf
  1775  00D2                     i1l1343:
  1776                           
  1777                           ;proyecto.c: 99:     if (RCREG == 's'){
  1778  00D2  3073               	movlw	115
  1779  00D3  1283               	bcf	3,5	;RP0=0, select bank0
  1780  00D4  1303               	bcf	3,6	;RP1=0, select bank0
  1781  00D5  061A               	xorwf	26,w	;volatile
  1782  00D6  1D03               	btfss	3,2
  1783  00D7  28D9               	goto	u44_21
  1784  00D8  28DA               	goto	u44_20
  1785  00D9                     u44_21:
  1786  00D9  2901               	goto	i1l1349
  1787  00DA                     u44_20:
  1788  00DA                     i1l1345:
  1789                           
  1790                           ;proyecto.c: 100:         PORTDbits.RD0 = 0;
  1791  00DA  1008               	bcf	8,0	;volatile
  1792                           
  1793                           ;proyecto.c: 101:         PORTEbits.RE0 = 0;
  1794  00DB  1009               	bcf	9,0	;volatile
  1795                           
  1796                           ;proyecto.c: 102:         PORTEbits.RE1 = 1;
  1797  00DC  1489               	bsf	9,1	;volatile
  1798  00DD                     i1l1347:
  1799                           
  1800                           ;proyecto.c: 103:         printf("\r Se apago el motor \r");
  1801  00DD  30D1               	movlw	low (STR_5| (0+32768))
  1802  00DE  00F1               	movwf	i1printf@f
  1803  00DF  3083               	movlw	high (STR_5| (0+32768))
  1804  00E0  00F2               	movwf	i1printf@f+1
  1805  00E1  120A  118A  251A  120A  118A  	fcall	i1_printf
  1806                           
  1807                           ;proyecto.c: 104:         printf("\r Apache w para prender el motor \r");
  1808  00E6  3000               	movlw	low (STR_6| (0+32768))
  1809  00E7  00F1               	movwf	i1printf@f
  1810  00E8  3083               	movlw	high (STR_6| (0+32768))
  1811  00E9  00F2               	movwf	i1printf@f+1
  1812  00EA  120A  118A  251A  120A  118A  	fcall	i1_printf
  1813                           
  1814                           ;proyecto.c: 105:         printf("\r Apache a para girar izquierda \r");
  1815  00EF  3023               	movlw	low (STR_3| (0+32768))
  1816  00F0  00F1               	movwf	i1printf@f
  1817  00F1  3083               	movlw	high (STR_3| (0+32768))
  1818  00F2  00F2               	movwf	i1printf@f+1
  1819  00F3  120A  118A  251A  120A  118A  	fcall	i1_printf
  1820                           
  1821                           ;proyecto.c: 106:         printf("\r Apache d para girar derecha \r");}
  1822  00F8  3045               	movlw	low (STR_4| (0+32768))
  1823  00F9  00F1               	movwf	i1printf@f
  1824  00FA  3083               	movlw	high (STR_4| (0+32768))
  1825  00FB  00F2               	movwf	i1printf@f+1
  1826  00FC  120A  118A  251A  120A  118A  	fcall	i1_printf
  1827  0101                     i1l1349:
  1828                           
  1829                           ;proyecto.c: 107:     if (RCREG == 'a'){
  1830  0101  3061               	movlw	97
  1831  0102  1283               	bcf	3,5	;RP0=0, select bank0
  1832  0103  1303               	bcf	3,6	;RP1=0, select bank0
  1833  0104  061A               	xorwf	26,w	;volatile
  1834  0105  1D03               	btfss	3,2
  1835  0106  2908               	goto	u45_21
  1836  0107  2909               	goto	u45_20
  1837  0108                     u45_21:
  1838  0108  2941               	goto	i1l1363
  1839  0109                     u45_20:
  1840  0109                     i1l1351:
  1841                           
  1842                           ;proyecto.c: 108:         bitb1();
  1843  0109  120A  118A  2594  120A  118A  	fcall	_bitb1
  1844  010E                     i1l1353:
  1845                           
  1846                           ;proyecto.c: 109:         printf("\r Girando izquierda \r");
  1847  010E  30BB               	movlw	low (STR_9| (0+32768))
  1848  010F  00F1               	movwf	i1printf@f
  1849  0110  3083               	movlw	high (STR_9| (0+32768))
  1850  0111  00F2               	movwf	i1printf@f+1
  1851  0112  120A  118A  251A  120A  118A  	fcall	i1_printf
  1852  0117                     i1l1355:
  1853                           
  1854                           ;proyecto.c: 110:         _delay((unsigned long)((100)*(8000000/4000.0)));
  1855  0117  3002               	movlw	2
  1856  0118  1283               	bcf	3,5	;RP0=0, select bank0
  1857  0119  1303               	bcf	3,6	;RP1=0, select bank0
  1858  011A  00B8               	movwf	??_isr+2
  1859  011B  3004               	movlw	4
  1860  011C  00B7               	movwf	??_isr+1
  1861  011D  30B9               	movlw	185
  1862  011E  00B6               	movwf	??_isr
  1863  011F                     u58_27:
  1864  011F  0BB6               	decfsz	??_isr,f
  1865  0120  291F               	goto	u58_27
  1866  0121  0BB7               	decfsz	??_isr+1,f
  1867  0122  291F               	goto	u58_27
  1868  0123  0BB8               	decfsz	??_isr+2,f
  1869  0124  291F               	goto	u58_27
  1870  0125  2926               	nop2
  1871  0126                     i1l1357:
  1872                           
  1873                           ;proyecto.c: 111:         printf("\r Apache s apagar el motor \r");
  1874  0126  3085               	movlw	low (STR_10| (0+32768))
  1875  0127  00F1               	movwf	i1printf@f
  1876  0128  3083               	movlw	high (STR_10| (0+32768))
  1877  0129  00F2               	movwf	i1printf@f+1
  1878  012A  120A  118A  251A  120A  118A  	fcall	i1_printf
  1879  012F                     i1l1359:
  1880                           
  1881                           ;proyecto.c: 112:         printf("\r Apache a para girar izquierda \r");
  1882  012F  3023               	movlw	low (STR_3| (0+32768))
  1883  0130  00F1               	movwf	i1printf@f
  1884  0131  3083               	movlw	high (STR_3| (0+32768))
  1885  0132  00F2               	movwf	i1printf@f+1
  1886  0133  120A  118A  251A  120A  118A  	fcall	i1_printf
  1887  0138                     i1l1361:
  1888                           
  1889                           ;proyecto.c: 113:         printf("\r Apache d para girar derecha \r");}
  1890  0138  3045               	movlw	low (STR_4| (0+32768))
  1891  0139  00F1               	movwf	i1printf@f
  1892  013A  3083               	movlw	high (STR_4| (0+32768))
  1893  013B  00F2               	movwf	i1printf@f+1
  1894  013C  120A  118A  251A  120A  118A  	fcall	i1_printf
  1895  0141                     i1l1363:
  1896                           
  1897                           ;proyecto.c: 114:     if (RCREG == 'd'){
  1898  0141  3064               	movlw	100
  1899  0142  1283               	bcf	3,5	;RP0=0, select bank0
  1900  0143  1303               	bcf	3,6	;RP1=0, select bank0
  1901  0144  061A               	xorwf	26,w	;volatile
  1902  0145  1D03               	btfss	3,2
  1903  0146  2948               	goto	u46_21
  1904  0147  2949               	goto	u46_20
  1905  0148                     u46_21:
  1906  0148  2981               	goto	i1l1377
  1907  0149                     u46_20:
  1908  0149                     i1l1365:
  1909                           
  1910                           ;proyecto.c: 115:         bitb3();
  1911  0149  120A  118A  2562  120A  118A  	fcall	_bitb3
  1912  014E                     i1l1367:
  1913                           
  1914                           ;proyecto.c: 116:         printf("\r Girando derecha \r");
  1915  014E  30E7               	movlw	low (STR_13| (0+32768))
  1916  014F  00F1               	movwf	i1printf@f
  1917  0150  3083               	movlw	high (STR_13| (0+32768))
  1918  0151  00F2               	movwf	i1printf@f+1
  1919  0152  120A  118A  251A  120A  118A  	fcall	i1_printf
  1920  0157                     i1l1369:
  1921                           
  1922                           ;proyecto.c: 117:         _delay((unsigned long)((100)*(8000000/4000.0)));
  1923  0157  3002               	movlw	2
  1924  0158  1283               	bcf	3,5	;RP0=0, select bank0
  1925  0159  1303               	bcf	3,6	;RP1=0, select bank0
  1926  015A  00B8               	movwf	??_isr+2
  1927  015B  3004               	movlw	4
  1928  015C  00B7               	movwf	??_isr+1
  1929  015D  30B9               	movlw	185
  1930  015E  00B6               	movwf	??_isr
  1931  015F                     u59_27:
  1932  015F  0BB6               	decfsz	??_isr,f
  1933  0160  295F               	goto	u59_27
  1934  0161  0BB7               	decfsz	??_isr+1,f
  1935  0162  295F               	goto	u59_27
  1936  0163  0BB8               	decfsz	??_isr+2,f
  1937  0164  295F               	goto	u59_27
  1938  0165  2966               	nop2
  1939  0166                     i1l1371:
  1940                           
  1941                           ;proyecto.c: 118:         printf("\r Apache s apagar el motor \r");
  1942  0166  3085               	movlw	low (STR_10| (0+32768))
  1943  0167  00F1               	movwf	i1printf@f
  1944  0168  3083               	movlw	high (STR_10| (0+32768))
  1945  0169  00F2               	movwf	i1printf@f+1
  1946  016A  120A  118A  251A  120A  118A  	fcall	i1_printf
  1947  016F                     i1l1373:
  1948                           
  1949                           ;proyecto.c: 119:         printf("\r Apache a para girar izquierda \r");
  1950  016F  3023               	movlw	low (STR_3| (0+32768))
  1951  0170  00F1               	movwf	i1printf@f
  1952  0171  3083               	movlw	high (STR_3| (0+32768))
  1953  0172  00F2               	movwf	i1printf@f+1
  1954  0173  120A  118A  251A  120A  118A  	fcall	i1_printf
  1955  0178                     i1l1375:
  1956                           
  1957                           ;proyecto.c: 120:         printf("\r Apache d para girar derecha \r");}
  1958  0178  3045               	movlw	low (STR_4| (0+32768))
  1959  0179  00F1               	movwf	i1printf@f
  1960  017A  3083               	movlw	high (STR_4| (0+32768))
  1961  017B  00F2               	movwf	i1printf@f+1
  1962  017C  120A  118A  251A  120A  118A  	fcall	i1_printf
  1963  0181                     i1l1377:
  1964                           
  1965                           ;proyecto.c: 121:     if (RCREG == 'q'){
  1966  0181  3071               	movlw	113
  1967  0182  1283               	bcf	3,5	;RP0=0, select bank0
  1968  0183  1303               	bcf	3,6	;RP1=0, select bank0
  1969  0184  061A               	xorwf	26,w	;volatile
  1970  0185  1D03               	btfss	3,2
  1971  0186  2988               	goto	u47_21
  1972  0187  2989               	goto	u47_20
  1973  0188                     u47_21:
  1974  0188  29F8               	goto	i1l1385
  1975  0189                     u47_20:
  1976  0189                     i1l1379:
  1977                           
  1978                           ;proyecto.c: 122:             write_eeprom (val, 0x17);
  1979  0189  087C               	movf	_val,w
  1980  018A  00B6               	movwf	??_isr
  1981  018B  01B7               	clrf	??_isr+1
  1982  018C  0836               	movf	??_isr,w
  1983  018D  00F0               	movwf	write_eeprom@dato
  1984  018E  0837               	movf	??_isr+1,w
  1985  018F  00F1               	movwf	write_eeprom@dato+1
  1986  0190  3017               	movlw	23
  1987  0191  00F2               	movwf	write_eeprom@direccion
  1988  0192  3000               	movlw	0
  1989  0193  00F3               	movwf	write_eeprom@direccion+1
  1990  0194  120A  118A  2540  120A  118A  	fcall	_write_eeprom
  1991                           
  1992                           ;proyecto.c: 123:             write_eeprom (val1, 0x18);
  1993  0199  087B               	movf	_val1+1,w
  1994  019A  00F1               	movwf	write_eeprom@dato+1
  1995  019B  087A               	movf	_val1,w
  1996  019C  00F0               	movwf	write_eeprom@dato
  1997  019D  3018               	movlw	24
  1998  019E  00F2               	movwf	write_eeprom@direccion
  1999  019F  3000               	movlw	0
  2000  01A0  00F3               	movwf	write_eeprom@direccion+1
  2001  01A1  120A  118A  2540  120A  118A  	fcall	_write_eeprom
  2002                           
  2003                           ;proyecto.c: 124:             write_eeprom (val2, 0x19);
  2004  01A6  0879               	movf	_val2+1,w
  2005  01A7  00F1               	movwf	write_eeprom@dato+1
  2006  01A8  0878               	movf	_val2,w
  2007  01A9  00F0               	movwf	write_eeprom@dato
  2008  01AA  3019               	movlw	25
  2009  01AB  00F2               	movwf	write_eeprom@direccion
  2010  01AC  3000               	movlw	0
  2011  01AD  00F3               	movwf	write_eeprom@direccion+1
  2012  01AE  120A  118A  2540  120A  118A  	fcall	_write_eeprom
  2013                           
  2014                           ;proyecto.c: 125:             write_eeprom (val3, 0x20);
  2015  01B3  1283               	bcf	3,5	;RP0=0, select bank0
  2016  01B4  1303               	bcf	3,6	;RP1=0, select bank0
  2017  01B5  0835               	movf	_val3+1,w
  2018  01B6  00F1               	movwf	write_eeprom@dato+1
  2019  01B7  0834               	movf	_val3,w
  2020  01B8  00F0               	movwf	write_eeprom@dato
  2021  01B9  3020               	movlw	32
  2022  01BA  00F2               	movwf	write_eeprom@direccion
  2023  01BB  3000               	movlw	0
  2024  01BC  00F3               	movwf	write_eeprom@direccion+1
  2025  01BD  120A  118A  2540  120A  118A  	fcall	_write_eeprom
  2026                           
  2027                           ;proyecto.c: 126:             write_eeprom (val4, 0x21);
  2028  01C2  1283               	bcf	3,5	;RP0=0, select bank0
  2029  01C3  1303               	bcf	3,6	;RP1=0, select bank0
  2030  01C4  0833               	movf	_val4+1,w
  2031  01C5  00F1               	movwf	write_eeprom@dato+1
  2032  01C6  0832               	movf	_val4,w
  2033  01C7  00F0               	movwf	write_eeprom@dato
  2034  01C8  3021               	movlw	33
  2035  01C9  00F2               	movwf	write_eeprom@direccion
  2036  01CA  3000               	movlw	0
  2037  01CB  00F3               	movwf	write_eeprom@direccion+1
  2038  01CC  120A  118A  2540  120A  118A  	fcall	_write_eeprom
  2039                           
  2040                           ;proyecto.c: 127:             write_eeprom (val5, 0x22);
  2041  01D1  1283               	bcf	3,5	;RP0=0, select bank0
  2042  01D2  1303               	bcf	3,6	;RP1=0, select bank0
  2043  01D3  0831               	movf	_val5+1,w
  2044  01D4  00F1               	movwf	write_eeprom@dato+1
  2045  01D5  0830               	movf	_val5,w
  2046  01D6  00F0               	movwf	write_eeprom@dato
  2047  01D7  3022               	movlw	34
  2048  01D8  00F2               	movwf	write_eeprom@direccion
  2049  01D9  3000               	movlw	0
  2050  01DA  00F3               	movwf	write_eeprom@direccion+1
  2051  01DB  120A  118A  2540  120A  118A  	fcall	_write_eeprom
  2052  01E0                     i1l1381:
  2053                           
  2054                           ;proyecto.c: 128:             _delay((unsigned long)((3000)*(8000000/4000.0)));
  2055  01E0  301F               	movlw	31
  2056  01E1  1283               	bcf	3,5	;RP0=0, select bank0
  2057  01E2  1303               	bcf	3,6	;RP1=0, select bank0
  2058  01E3  00B8               	movwf	??_isr+2
  2059  01E4  3071               	movlw	113
  2060  01E5  00B7               	movwf	??_isr+1
  2061  01E6  301D               	movlw	29
  2062  01E7  00B6               	movwf	??_isr
  2063  01E8                     u60_27:
  2064  01E8  0BB6               	decfsz	??_isr,f
  2065  01E9  29E8               	goto	u60_27
  2066  01EA  0BB7               	decfsz	??_isr+1,f
  2067  01EB  29E8               	goto	u60_27
  2068  01EC  0BB8               	decfsz	??_isr+2,f
  2069  01ED  29E8               	goto	u60_27
  2070  01EE  29EF               	nop2
  2071  01EF                     i1l1383:
  2072                           
  2073                           ;proyecto.c: 129:             printf("\r Grabando \r");}
  2074  01EF  300E               	movlw	low (STR_17| (0+32768))
  2075  01F0  00F1               	movwf	i1printf@f
  2076  01F1  3084               	movlw	high (STR_17| (0+32768))
  2077  01F2  00F2               	movwf	i1printf@f+1
  2078  01F3  120A  118A  251A  120A  118A  	fcall	i1_printf
  2079  01F8                     i1l1385:
  2080                           
  2081                           ;proyecto.c: 130:     if (RCREG == 'e'){
  2082  01F8  3065               	movlw	101
  2083  01F9  1283               	bcf	3,5	;RP0=0, select bank0
  2084  01FA  1303               	bcf	3,6	;RP1=0, select bank0
  2085  01FB  061A               	xorwf	26,w	;volatile
  2086  01FC  1D03               	btfss	3,2
  2087  01FD  29FF               	goto	u48_21
  2088  01FE  2A00               	goto	u48_20
  2089  01FF                     u48_21:
  2090  01FF  2AA3               	goto	i1l154
  2091  0200                     u48_20:
  2092  0200                     i1l1387:
  2093                           
  2094                           ;proyecto.c: 131:             lectura1 = read_eeprom (0x17);
  2095  0200  3017               	movlw	23
  2096  0201  00F0               	movwf	read_eeprom@direccion
  2097  0202  3000               	movlw	0
  2098  0203  00F1               	movwf	read_eeprom@direccion+1
  2099  0204  120A  118A  25AD  120A  118A  	fcall	_read_eeprom
  2100  0209  1283               	bcf	3,5	;RP0=0, select bank0
  2101  020A  1303               	bcf	3,6	;RP1=0, select bank0
  2102  020B  00B6               	movwf	??_isr
  2103  020C  01B7               	clrf	??_isr+1
  2104  020D  0836               	movf	??_isr,w
  2105  020E  00AE               	movwf	_lectura1
  2106  020F  0837               	movf	??_isr+1,w
  2107  0210  00AF               	movwf	_lectura1+1
  2108                           
  2109                           ;proyecto.c: 132:             lectura2 = read_eeprom (0x18);
  2110  0211  3018               	movlw	24
  2111  0212  00F0               	movwf	read_eeprom@direccion
  2112  0213  3000               	movlw	0
  2113  0214  00F1               	movwf	read_eeprom@direccion+1
  2114  0215  120A  118A  25AD  120A  118A  	fcall	_read_eeprom
  2115  021A  1283               	bcf	3,5	;RP0=0, select bank0
  2116  021B  1303               	bcf	3,6	;RP1=0, select bank0
  2117  021C  00B6               	movwf	??_isr
  2118  021D  01B7               	clrf	??_isr+1
  2119  021E  0836               	movf	??_isr,w
  2120  021F  00AC               	movwf	_lectura2
  2121  0220  0837               	movf	??_isr+1,w
  2122  0221  00AD               	movwf	_lectura2+1
  2123                           
  2124                           ;proyecto.c: 133:             lectura3 = read_eeprom (0x19);
  2125  0222  3019               	movlw	25
  2126  0223  00F0               	movwf	read_eeprom@direccion
  2127  0224  3000               	movlw	0
  2128  0225  00F1               	movwf	read_eeprom@direccion+1
  2129  0226  120A  118A  25AD  120A  118A  	fcall	_read_eeprom
  2130  022B  1283               	bcf	3,5	;RP0=0, select bank0
  2131  022C  1303               	bcf	3,6	;RP1=0, select bank0
  2132  022D  00B6               	movwf	??_isr
  2133  022E  01B7               	clrf	??_isr+1
  2134  022F  0836               	movf	??_isr,w
  2135  0230  00AA               	movwf	_lectura3
  2136  0231  0837               	movf	??_isr+1,w
  2137  0232  00AB               	movwf	_lectura3+1
  2138                           
  2139                           ;proyecto.c: 134:             lectura4 = read_eeprom (0x20);
  2140  0233  3020               	movlw	32
  2141  0234  00F0               	movwf	read_eeprom@direccion
  2142  0235  3000               	movlw	0
  2143  0236  00F1               	movwf	read_eeprom@direccion+1
  2144  0237  120A  118A  25AD  120A  118A  	fcall	_read_eeprom
  2145  023C  1283               	bcf	3,5	;RP0=0, select bank0
  2146  023D  1303               	bcf	3,6	;RP1=0, select bank0
  2147  023E  00B6               	movwf	??_isr
  2148  023F  01B7               	clrf	??_isr+1
  2149  0240  0836               	movf	??_isr,w
  2150  0241  00A8               	movwf	_lectura4
  2151  0242  0837               	movf	??_isr+1,w
  2152  0243  00A9               	movwf	_lectura4+1
  2153                           
  2154                           ;proyecto.c: 135:             lectura5 = read_eeprom (0x21);
  2155  0244  3021               	movlw	33
  2156  0245  00F0               	movwf	read_eeprom@direccion
  2157  0246  3000               	movlw	0
  2158  0247  00F1               	movwf	read_eeprom@direccion+1
  2159  0248  120A  118A  25AD  120A  118A  	fcall	_read_eeprom
  2160  024D  1283               	bcf	3,5	;RP0=0, select bank0
  2161  024E  1303               	bcf	3,6	;RP1=0, select bank0
  2162  024F  00B6               	movwf	??_isr
  2163  0250  01B7               	clrf	??_isr+1
  2164  0251  0836               	movf	??_isr,w
  2165  0252  00A6               	movwf	_lectura5
  2166  0253  0837               	movf	??_isr+1,w
  2167  0254  00A7               	movwf	_lectura5+1
  2168                           
  2169                           ;proyecto.c: 136:             lectura6 = read_eeprom (0x22);
  2170  0255  3022               	movlw	34
  2171  0256  00F0               	movwf	read_eeprom@direccion
  2172  0257  3000               	movlw	0
  2173  0258  00F1               	movwf	read_eeprom@direccion+1
  2174  0259  120A  118A  25AD  120A  118A  	fcall	_read_eeprom
  2175  025E  1283               	bcf	3,5	;RP0=0, select bank0
  2176  025F  1303               	bcf	3,6	;RP1=0, select bank0
  2177  0260  00B6               	movwf	??_isr
  2178  0261  01B7               	clrf	??_isr+1
  2179  0262  0836               	movf	??_isr,w
  2180  0263  00A4               	movwf	_lectura6
  2181  0264  0837               	movf	??_isr+1,w
  2182  0265  00A5               	movwf	_lectura6+1
  2183  0266                     i1l1389:
  2184                           
  2185                           ;proyecto.c: 137:             _delay((unsigned long)((3000)*(8000000/4000.0)));
  2186  0266  301F               	movlw	31
  2187  0267  1283               	bcf	3,5	;RP0=0, select bank0
  2188  0268  1303               	bcf	3,6	;RP1=0, select bank0
  2189  0269  00B8               	movwf	??_isr+2
  2190  026A  3071               	movlw	113
  2191  026B  00B7               	movwf	??_isr+1
  2192  026C  301D               	movlw	29
  2193  026D  00B6               	movwf	??_isr
  2194  026E                     u61_27:
  2195  026E  0BB6               	decfsz	??_isr,f
  2196  026F  2A6E               	goto	u61_27
  2197  0270  0BB7               	decfsz	??_isr+1,f
  2198  0271  2A6E               	goto	u61_27
  2199  0272  0BB8               	decfsz	??_isr+2,f
  2200  0273  2A6E               	goto	u61_27
  2201  0274  2A75               	nop2
  2202  0275                     i1l1391:
  2203                           
  2204                           ;proyecto.c: 138:             printf("\r Cargando \r");
  2205  0275  301B               	movlw	low (STR_18| (0+32768))
  2206  0276  00F1               	movwf	i1printf@f
  2207  0277  3084               	movlw	high (STR_18| (0+32768))
  2208  0278  00F2               	movwf	i1printf@f+1
  2209  0279  120A  118A  251A  120A  118A  	fcall	i1_printf
  2210  027E                     i1l1393:
  2211                           
  2212                           ;proyecto.c: 139:             CCPR1L = (lectura2>>1)+124;
  2213  027E  1283               	bcf	3,5	;RP0=0, select bank0
  2214  027F  1303               	bcf	3,6	;RP1=0, select bank0
  2215  0280  082D               	movf	_lectura2+1,w
  2216  0281  00B7               	movwf	??_isr+1
  2217  0282  082C               	movf	_lectura2,w
  2218  0283  00B6               	movwf	??_isr
  2219  0284  0D37               	rlf	??_isr+1,w
  2220  0285  0CB7               	rrf	??_isr+1,f
  2221  0286  0CB6               	rrf	??_isr,f
  2222  0287  0836               	movf	??_isr,w
  2223  0288  3E7C               	addlw	124
  2224  0289  0095               	movwf	21	;volatile
  2225  028A                     i1l1395:
  2226                           
  2227                           ;proyecto.c: 140:             CCPR2L = (lectura3>>1)+124;
  2228  028A  082B               	movf	_lectura3+1,w
  2229  028B  00B7               	movwf	??_isr+1
  2230  028C  082A               	movf	_lectura3,w
  2231  028D  00B6               	movwf	??_isr
  2232  028E  0D37               	rlf	??_isr+1,w
  2233  028F  0CB7               	rrf	??_isr+1,f
  2234  0290  0CB6               	rrf	??_isr,f
  2235  0291  0836               	movf	??_isr,w
  2236  0292  3E7C               	addlw	124
  2237  0293  009B               	movwf	27	;volatile
  2238  0294                     i1l1397:
  2239                           
  2240                           ;proyecto.c: 141:             PORTEbits.RE0 = lectura4;
  2241  0294  0C28               	rrf	_lectura4,w
  2242  0295  1C03               	skipc
  2243  0296  1009               	bcf	9,0	;volatile
  2244  0297  1803               	skipnc
  2245  0298  1409               	bsf	9,0	;volatile
  2246  0299                     i1l1399:
  2247                           
  2248                           ;proyecto.c: 142:             PORTEbits.RE1 = lectura5;
  2249  0299  0C26               	rrf	_lectura5,w
  2250  029A  1C03               	skipc
  2251  029B  1089               	bcf	9,1	;volatile
  2252  029C  1803               	skipnc
  2253  029D  1489               	bsf	9,1	;volatile
  2254  029E                     i1l1401:
  2255                           
  2256                           ;proyecto.c: 143:             PORTDbits.RD0 = lectura6;
  2257  029E  0C24               	rrf	_lectura6,w
  2258  029F  1C03               	skipc
  2259  02A0  1008               	bcf	8,0	;volatile
  2260  02A1  1803               	skipnc
  2261  02A2  1408               	bsf	8,0	;volatile
  2262  02A3                     i1l154:	
  2263                           ;proyecto.c: 148:         }
  2264                           
  2265                           
  2266                           ;proyecto.c: 155: if (RBIF == 1)
  2267  02A3  1C0B               	btfss	11,0	;volatile
  2268  02A4  2AA6               	goto	u49_21
  2269  02A5  2AA7               	goto	u49_20
  2270  02A6                     u49_21:
  2271  02A6  2AE7               	goto	i1l166
  2272  02A7                     u49_20:
  2273  02A7                     i1l1403:
  2274                           
  2275                           ;proyecto.c: 156:     {;proyecto.c: 157:         if (PORTBbits.RB0 == 0)
  2276  02A7  1806               	btfsc	6,0	;volatile
  2277  02A8  2AAA               	goto	u50_21
  2278  02A9  2AAB               	goto	u50_20
  2279  02AA                     u50_21:
  2280  02AA  2AC7               	goto	i1l163
  2281  02AB                     u50_20:
  2282  02AB                     i1l1405:
  2283                           
  2284                           ;proyecto.c: 158:         {;proyecto.c: 159:             PORTDbits.RD0 = 1;
  2285  02AB  1408               	bsf	8,0	;volatile
  2286                           
  2287                           ;proyecto.c: 160:             PORTEbits.RE0 = 1;
  2288  02AC  1409               	bsf	9,0	;volatile
  2289                           
  2290                           ;proyecto.c: 161:             PORTEbits.RE1 = 0;
  2291  02AD  1089               	bcf	9,1	;volatile
  2292  02AE                     i1l1407:
  2293                           
  2294                           ;proyecto.c: 162:             val3 = PORTEbits.RE0;
  2295  02AE  0809               	movf	9,w	;volatile
  2296  02AF  3901               	andlw	1
  2297  02B0  00B6               	movwf	??_isr
  2298  02B1  01B7               	clrf	??_isr+1
  2299  02B2  0836               	movf	??_isr,w
  2300  02B3  00B4               	movwf	_val3
  2301  02B4  0837               	movf	??_isr+1,w
  2302  02B5  00B5               	movwf	_val3+1
  2303                           
  2304                           ;proyecto.c: 163:             val4 = PORTEbits.RE1;
  2305  02B6  0C09               	rrf	9,w	;volatile
  2306  02B7  3901               	andlw	1
  2307  02B8  00B6               	movwf	??_isr
  2308  02B9  01B7               	clrf	??_isr+1
  2309  02BA  0836               	movf	??_isr,w
  2310  02BB  00B2               	movwf	_val4
  2311  02BC  0837               	movf	??_isr+1,w
  2312  02BD  00B3               	movwf	_val4+1
  2313                           
  2314                           ;proyecto.c: 164:             val5 = PORTDbits.RD0;
  2315  02BE  0808               	movf	8,w	;volatile
  2316  02BF  3901               	andlw	1
  2317  02C0  00B6               	movwf	??_isr
  2318  02C1  01B7               	clrf	??_isr+1
  2319  02C2  0836               	movf	??_isr,w
  2320  02C3  00B0               	movwf	_val5
  2321  02C4  0837               	movf	??_isr+1,w
  2322  02C5  00B1               	movwf	_val5+1
  2323                           
  2324                           ;proyecto.c: 166:         }
  2325  02C6  2AE6               	goto	i1l1413
  2326  02C7                     i1l163:	
  2327                           ;proyecto.c: 167:         else if (PORTBbits.RB1 == 0)
  2328                           
  2329  02C7  1886               	btfsc	6,1	;volatile
  2330  02C8  2ACA               	goto	u51_21
  2331  02C9  2ACB               	goto	u51_20
  2332  02CA                     u51_21:
  2333  02CA  2AE6               	goto	i1l1413
  2334  02CB                     u51_20:
  2335  02CB                     i1l1409:
  2336                           
  2337                           ;proyecto.c: 168:         {;proyecto.c: 169:             PORTDbits.RD0 = 0;
  2338  02CB  1008               	bcf	8,0	;volatile
  2339                           
  2340                           ;proyecto.c: 170:             PORTEbits.RE0= 0;
  2341  02CC  1009               	bcf	9,0	;volatile
  2342                           
  2343                           ;proyecto.c: 171:             PORTEbits.RE1= 1;
  2344  02CD  1489               	bsf	9,1	;volatile
  2345  02CE                     i1l1411:
  2346                           
  2347                           ;proyecto.c: 172:             val3 = PORTEbits.RE0;
  2348  02CE  0809               	movf	9,w	;volatile
  2349  02CF  3901               	andlw	1
  2350  02D0  00B6               	movwf	??_isr
  2351  02D1  01B7               	clrf	??_isr+1
  2352  02D2  0836               	movf	??_isr,w
  2353  02D3  00B4               	movwf	_val3
  2354  02D4  0837               	movf	??_isr+1,w
  2355  02D5  00B5               	movwf	_val3+1
  2356                           
  2357                           ;proyecto.c: 173:             val4 = PORTEbits.RE1;
  2358  02D6  0C09               	rrf	9,w	;volatile
  2359  02D7  3901               	andlw	1
  2360  02D8  00B6               	movwf	??_isr
  2361  02D9  01B7               	clrf	??_isr+1
  2362  02DA  0836               	movf	??_isr,w
  2363  02DB  00B2               	movwf	_val4
  2364  02DC  0837               	movf	??_isr+1,w
  2365  02DD  00B3               	movwf	_val4+1
  2366                           
  2367                           ;proyecto.c: 174:             val5 = PORTDbits.RD0;
  2368  02DE  0808               	movf	8,w	;volatile
  2369  02DF  3901               	andlw	1
  2370  02E0  00B6               	movwf	??_isr
  2371  02E1  01B7               	clrf	??_isr+1
  2372  02E2  0836               	movf	??_isr,w
  2373  02E3  00B0               	movwf	_val5
  2374  02E4  0837               	movf	??_isr+1,w
  2375  02E5  00B1               	movwf	_val5+1
  2376  02E6                     i1l1413:
  2377                           
  2378                           ;proyecto.c: 176:         INTCONbits.RBIF = 0;
  2379  02E6  100B               	bcf	11,0	;volatile
  2380  02E7                     i1l166:
  2381  02E7  083C               	movf	??_isr+6,w
  2382  02E8  00FF               	movwf	btemp+1
  2383  02E9  083B               	movf	??_isr+5,w
  2384  02EA  008A               	movwf	10
  2385  02EB  083A               	movf	??_isr+4,w
  2386  02EC  0084               	movwf	4
  2387  02ED  0E39               	swapf	??_isr+3,w
  2388  02EE  0083               	movwf	3
  2389  02EF  0EFE               	swapf	btemp,f
  2390  02F0  0E7E               	swapf	btemp,w
  2391  02F1  0009               	retfie
  2392  02F2                     __end_of_isr:
  2393                           
  2394                           	psect	intentry
  2395  0004                     __pintentry:	
  2396                           ;incstack = 0
  2397                           ; Regs used in _isr: [wreg-fsr0h+status,2+status,0+btemp+1+pclath+cstack]
  2398                           
  2399  0004                     interrupt_function:
  2400  007E                     saved_w	set	btemp
  2401  0004  00FE               	movwf	btemp
  2402  0005  0E03               	swapf	3,w
  2403  0006  1283               	bcf	3,5	;RP0=0, select bank0
  2404  0007  1303               	bcf	3,6	;RP1=0, select bank0
  2405  0008  00B9               	movwf	??_isr+3
  2406  0009  0804               	movf	4,w
  2407  000A  00BA               	movwf	??_isr+4
  2408  000B  080A               	movf	10,w
  2409  000C  00BB               	movwf	??_isr+5
  2410  000D  087F               	movf	btemp+1,w
  2411  000E  00BC               	movwf	??_isr+6
  2412  000F  120A  118A  2827   	ljmp	_isr
  2413                           
  2414                           	psect	text5
  2415  051A                     __ptext5:	
  2416 ;; *************** function i1_printf *****************
  2417 ;; Defined at:
  2418 ;;		line 477 in file "C:\Program Files\Microchip\xc8\v2.31\pic\sources\c90\common\doprnt.c"
  2419 ;; Parameters:    Size  Location     Type
  2420 ;;  f               2    1[COMMON] PTR const unsigned char 
  2421 ;;		 -> STR_19(32), STR_18(13), STR_17(13), STR_16(32), 
  2422 ;;		 -> STR_15(34), STR_14(29), STR_13(20), STR_12(32), 
  2423 ;;		 -> STR_11(34), STR_10(29), STR_9(22), STR_8(32), 
  2424 ;;		 -> STR_7(34), STR_6(35), STR_5(22), STR_4(32), 
  2425 ;;		 -> STR_3(34), STR_2(25), STR_1(19), 
  2426 ;; Auto vars:     Size  Location     Type
  2427 ;;  tmpval          4    0        struct .
  2428 ;;  cp              2    0        PTR const unsigned char 
  2429 ;;  len             2    0        unsigned int 
  2430 ;;  val             2    0        unsigned int 
  2431 ;;  c               1    7[COMMON] unsigned char 
  2432 ;;  ap              1    6[COMMON] PTR void [1]
  2433 ;;		 -> ?i1_printf(2), ?_printf(2), 
  2434 ;;  flag            1    0        unsigned char 
  2435 ;;  prec            1    0        char 
  2436 ;; Return value:  Size  Location     Type
  2437 ;;                  2    1[COMMON] int 
  2438 ;; Registers used:
  2439 ;;		wreg, fsr0l, fsr0h, status,2, status,0, btemp+1, pclath, cstack
  2440 ;; Tracked objects:
  2441 ;;		On entry : 0/0
  2442 ;;		On exit  : 0/0
  2443 ;;		Unchanged: 0/0
  2444 ;; Data sizes:     COMMON   BANK0   BANK1   BANK3   BANK2
  2445 ;;      Params:         2       0       0       0       0
  2446 ;;      Locals:         2       0       0       0       0
  2447 ;;      Temps:          3       0       0       0       0
  2448 ;;      Totals:         7       0       0       0       0
  2449 ;;Total ram usage:        7 bytes
  2450 ;; Hardware stack levels used:    1
  2451 ;; Hardware stack levels required when called:    1
  2452 ;; This function calls:
  2453 ;;		i1_putch
  2454 ;; This function is called by:
  2455 ;;		_isr
  2456 ;; This function uses a non-reentrant model
  2457 ;;
  2458                           
  2459                           
  2460                           ;psect for function i1_printf
  2461  051A                     i1_printf:
  2462  051A                     i1l1285:	
  2463                           ;incstack = 0
  2464                           ; Regs used in i1_printf: [wreg-fsr0h+status,2+status,0+btemp+1+pclath+cstack]
  2465                           
  2466                           
  2467                           ;C:\Program Files\Microchip\xc8\v2.31\pic\sources\c90\common\doprnt.c: 477: printf(const
      +                           char * f, ...);C:\Program Files\Microchip\xc8\v2.31\pic\sources\c90\common\doprnt.c: 47
      +                          8: {;C:\Program Files\Microchip\xc8\v2.31\pic\sources\c90\common\doprnt.c: 479:  va_list
      +                           ap;;C:\Program Files\Microchip\xc8\v2.31\pic\sources\c90\common\doprnt.c: 512:  char c;
      +                          ;C:\Program Files\Microchip\xc8\v2.31\pic\sources\c90\common\doprnt.c: 521:  signed char
      +                           prec;;C:\Program Files\Microchip\xc8\v2.31\pic\sources\c90\common\doprnt.c: 525:  unsig
      +                          ned char flag;
  2468  051A  3073               	movlw	(low ((?i1_printf| 0+2)))& (0+255)
  2469  051B  00F3               	movwf	??i1_printf
  2470  051C  0873               	movf	??i1_printf,w
  2471  051D  00F6               	movwf	i1printf@ap
  2472                           
  2473                           ;C:\Program Files\Microchip\xc8\v2.31\pic\sources\c90\common\doprnt.c: 553:  while((c = 
      +                          *f++)) {
  2474  051E  2D25               	goto	i1l1289
  2475  051F                     i1l1287:
  2476                           
  2477                           ;C:\Program Files\Microchip\xc8\v2.31\pic\sources\c90\common\doprnt.c: 557:   {;C:\Progr
      +                          am Files\Microchip\xc8\v2.31\pic\sources\c90\common\doprnt.c: 558:    (putch(c) );
  2478  051F  0877               	movf	i1printf@c,w
  2479  0520  120A  118A  25DC  120A  118A  	fcall	i1_putch
  2480  0525                     i1l1289:	
  2481                           ;C:\Program Files\Microchip\xc8\v2.31\pic\sources\c90\common\doprnt.c: 559:    continue;
  2482                           
  2483                           
  2484                           ;C:\Program Files\Microchip\xc8\v2.31\pic\sources\c90\common\doprnt.c: 553:  while((c = 
      +                          *f++)) {
  2485  0525  0872               	movf	i1printf@f+1,w
  2486  0526  00F4               	movwf	??i1_printf+1
  2487  0527  0871               	movf	i1printf@f,w
  2488  0528  00F3               	movwf	??i1_printf
  2489  0529  0AF1               	incf	i1printf@f,f
  2490  052A  1903               	skipnz
  2491  052B  0AF2               	incf	i1printf@f+1,f
  2492  052C  0874               	movf	??i1_printf+1,w
  2493  052D  1283               	bcf	3,5	;RP0=0, select bank0
  2494  052E  1303               	bcf	3,6	;RP1=0, select bank0
  2495  052F  00FF               	movwf	btemp+1
  2496  0530  0873               	movf	??i1_printf,w
  2497  0531  0084               	movwf	4
  2498  0532  120A  118A  25C0  120A  118A  	fcall	stringtab
  2499  0537  00F5               	movwf	??i1_printf+2
  2500  0538  0875               	movf	??i1_printf+2,w
  2501  0539  00F7               	movwf	i1printf@c
  2502  053A  0877               	movf	i1printf@c,w
  2503  053B  1D03               	btfss	3,2
  2504  053C  2D3E               	goto	u33_21
  2505  053D  2D3F               	goto	u33_20
  2506  053E                     u33_21:
  2507  053E  2D1F               	goto	i1l1287
  2508  053F                     u33_20:
  2509  053F                     i1l301:
  2510  053F  0008               	return
  2511  0540                     __end_ofi1_printf:
  2512                           
  2513                           	psect	text6
  2514  05DC                     __ptext6:	
  2515 ;; *************** function i1_putch *****************
  2516 ;; Defined at:
  2517 ;;		line 208 in file "proyecto.c"
  2518 ;; Parameters:    Size  Location     Type
  2519 ;;  data            1    wreg     unsigned char 
  2520 ;; Auto vars:     Size  Location     Type
  2521 ;;  data            1    0[COMMON] unsigned char 
  2522 ;; Return value:  Size  Location     Type
  2523 ;;                  1    wreg      void 
  2524 ;; Registers used:
  2525 ;;		wreg
  2526 ;; Tracked objects:
  2527 ;;		On entry : 0/0
  2528 ;;		On exit  : 0/0
  2529 ;;		Unchanged: 0/0
  2530 ;; Data sizes:     COMMON   BANK0   BANK1   BANK3   BANK2
  2531 ;;      Params:         0       0       0       0       0
  2532 ;;      Locals:         1       0       0       0       0
  2533 ;;      Temps:          0       0       0       0       0
  2534 ;;      Totals:         1       0       0       0       0
  2535 ;;Total ram usage:        1 bytes
  2536 ;; Hardware stack levels used:    1
  2537 ;; This function calls:
  2538 ;;		Nothing
  2539 ;; This function is called by:
  2540 ;;		i1_printf
  2541 ;; This function uses a non-reentrant model
  2542 ;;
  2543                           
  2544                           
  2545                           ;psect for function i1_putch
  2546  05DC                     i1_putch:
  2547                           
  2548                           ;incstack = 0
  2549                           ; Regs used in i1_putch: [wreg]
  2550                           ;i1putch@data stored from wreg
  2551  05DC  00F0               	movwf	i1putch@data
  2552  05DD                     i1l1131:
  2553  05DD                     i1l182:	
  2554                           ;proyecto.c: 209:     while(TXIF == 0);
  2555                           
  2556  05DD  1283               	bcf	3,5	;RP0=0, select bank0
  2557  05DE  1303               	bcf	3,6	;RP1=0, select bank0
  2558  05DF  1E0C               	btfss	12,4	;volatile
  2559  05E0  2DE2               	goto	u29_21
  2560  05E1  2DE3               	goto	u29_20
  2561  05E2                     u29_21:
  2562  05E2  2DDD               	goto	i1l182
  2563  05E3                     u29_20:
  2564  05E3                     i1l1133:
  2565                           
  2566                           ;proyecto.c: 210:     TXREG = data;
  2567  05E3  0870               	movf	i1putch@data,w
  2568  05E4  0099               	movwf	25	;volatile
  2569  05E5                     i1l185:
  2570  05E5  0008               	return
  2571  05E6                     __end_ofi1_putch:
  2572                           
  2573                           	psect	text7
  2574  0540                     __ptext7:	
  2575 ;; *************** function _write_eeprom *****************
  2576 ;; Defined at:
  2577 ;;		line 351 in file "proyecto.c"
  2578 ;; Parameters:    Size  Location     Type
  2579 ;;  dato            2    0[COMMON] int 
  2580 ;;  direccion       2    2[COMMON] int 
  2581 ;; Auto vars:     Size  Location     Type
  2582 ;;		None
  2583 ;; Return value:  Size  Location     Type
  2584 ;;                  1    wreg      void 
  2585 ;; Registers used:
  2586 ;;		wreg
  2587 ;; Tracked objects:
  2588 ;;		On entry : 0/0
  2589 ;;		On exit  : 0/0
  2590 ;;		Unchanged: 0/0
  2591 ;; Data sizes:     COMMON   BANK0   BANK1   BANK3   BANK2
  2592 ;;      Params:         4       0       0       0       0
  2593 ;;      Locals:         0       0       0       0       0
  2594 ;;      Temps:          0       0       0       0       0
  2595 ;;      Totals:         4       0       0       0       0
  2596 ;;Total ram usage:        4 bytes
  2597 ;; Hardware stack levels used:    1
  2598 ;; This function calls:
  2599 ;;		Nothing
  2600 ;; This function is called by:
  2601 ;;		_isr
  2602 ;; This function uses a non-reentrant model
  2603 ;;
  2604                           
  2605                           
  2606                           ;psect for function _write_eeprom
  2607  0540                     _write_eeprom:
  2608  0540                     i1l1161:	
  2609                           ;incstack = 0
  2610                           ; Regs used in _write_eeprom: [wreg]
  2611                           
  2612                           
  2613                           ;proyecto.c: 352:     EEADR = direccion;
  2614  0540  0872               	movf	write_eeprom@direccion,w
  2615  0541  1283               	bcf	3,5	;RP0=0, select bank2
  2616  0542  1703               	bsf	3,6	;RP1=1, select bank2
  2617  0543  008D               	movwf	13	;volatile
  2618                           
  2619                           ;proyecto.c: 353:     EEDAT = dato;
  2620  0544  0870               	movf	write_eeprom@dato,w
  2621  0545  008C               	movwf	12	;volatile
  2622  0546                     i1l1163:
  2623                           
  2624                           ;proyecto.c: 356:     INTCONbits.GIE = 0;
  2625  0546  138B               	bcf	11,7	;volatile
  2626  0547                     i1l1165:
  2627                           
  2628                           ;proyecto.c: 358:     EECON1bits.EEPGD = 0;
  2629  0547  1683               	bsf	3,5	;RP0=1, select bank3
  2630  0548  1703               	bsf	3,6	;RP1=1, select bank3
  2631  0549  138C               	bcf	12,7	;volsfr
  2632  054A                     i1l1167:
  2633                           
  2634                           ;proyecto.c: 359:     EECON1bits.WREN = 1;
  2635  054A  150C               	bsf	12,2	;volsfr
  2636                           
  2637                           ;proyecto.c: 362:     EECON2 = 0x55;
  2638  054B  3055               	movlw	85
  2639  054C  008D               	movwf	13	;volsfr
  2640  054D                     i1l1169:
  2641                           
  2642                           ;proyecto.c: 363:     EECON1bits.WREN = 1;
  2643  054D  150C               	bsf	12,2	;volsfr
  2644                           
  2645                           ;proyecto.c: 366:     EECON2 = 0x55;
  2646  054E  3055               	movlw	85
  2647  054F  008D               	movwf	13	;volsfr
  2648  0550                     i1l1171:
  2649                           
  2650                           ;proyecto.c: 367:     EECON1bits.WREN = 1;
  2651  0550  150C               	bsf	12,2	;volsfr
  2652                           
  2653                           ;proyecto.c: 370:     EECON2 = 0x55;
  2654  0551  3055               	movlw	85
  2655  0552  008D               	movwf	13	;volsfr
  2656                           
  2657                           ;proyecto.c: 371:     EECON2 = 0xAA;
  2658  0553  30AA               	movlw	170
  2659  0554  008D               	movwf	13	;volsfr
  2660  0555                     i1l1173:
  2661                           
  2662                           ;proyecto.c: 373:     EECON1bits.WR = 1;
  2663  0555  148C               	bsf	12,1	;volsfr
  2664  0556                     i1l203:	
  2665                           ;proyecto.c: 375:     while(PIR2bits.EEIF == 0);
  2666                           
  2667  0556  1283               	bcf	3,5	;RP0=0, select bank0
  2668  0557  1303               	bcf	3,6	;RP1=0, select bank0
  2669  0558  1E0D               	btfss	13,4	;volatile
  2670  0559  2D5B               	goto	u31_21
  2671  055A  2D5C               	goto	u31_20
  2672  055B                     u31_21:
  2673  055B  2D56               	goto	i1l203
  2674  055C                     u31_20:
  2675  055C                     i1l205:
  2676                           
  2677                           ;proyecto.c: 376:     PIR2bits.EEIF = 0;
  2678  055C  120D               	bcf	13,4	;volatile
  2679                           
  2680                           ;proyecto.c: 378:     EECON1bits.WREN = 0;
  2681  055D  1683               	bsf	3,5	;RP0=1, select bank3
  2682  055E  1703               	bsf	3,6	;RP1=1, select bank3
  2683  055F  110C               	bcf	12,2	;volsfr
  2684                           
  2685                           ;proyecto.c: 379:     INTCONbits.GIE = 1;
  2686  0560  178B               	bsf	11,7	;volatile
  2687  0561                     i1l206:
  2688  0561  0008               	return
  2689  0562                     __end_of_write_eeprom:
  2690                           
  2691                           	psect	text8
  2692  05AD                     __ptext8:	
  2693 ;; *************** function _read_eeprom *****************
  2694 ;; Defined at:
  2695 ;;		line 382 in file "proyecto.c"
  2696 ;; Parameters:    Size  Location     Type
  2697 ;;  direccion       2    0[COMMON] int 
  2698 ;; Auto vars:     Size  Location     Type
  2699 ;;  dato            2    4[COMMON] int 
  2700 ;; Return value:  Size  Location     Type
  2701 ;;                  1    wreg      unsigned char 
  2702 ;; Registers used:
  2703 ;;		wreg
  2704 ;; Tracked objects:
  2705 ;;		On entry : 0/0
  2706 ;;		On exit  : 0/0
  2707 ;;		Unchanged: 0/0
  2708 ;; Data sizes:     COMMON   BANK0   BANK1   BANK3   BANK2
  2709 ;;      Params:         2       0       0       0       0
  2710 ;;      Locals:         2       0       0       0       0
  2711 ;;      Temps:          2       0       0       0       0
  2712 ;;      Totals:         6       0       0       0       0
  2713 ;;Total ram usage:        6 bytes
  2714 ;; Hardware stack levels used:    1
  2715 ;; This function calls:
  2716 ;;		Nothing
  2717 ;; This function is called by:
  2718 ;;		_isr
  2719 ;; This function uses a non-reentrant model
  2720 ;;
  2721                           
  2722                           
  2723                           ;psect for function _read_eeprom
  2724  05AD                     _read_eeprom:
  2725  05AD                     i1l1175:	
  2726                           ;incstack = 0
  2727                           ; Regs used in _read_eeprom: [wreg]
  2728                           
  2729                           
  2730                           ;proyecto.c: 383:     EEADR = direccion;
  2731  05AD  0870               	movf	read_eeprom@direccion,w
  2732  05AE  1283               	bcf	3,5	;RP0=0, select bank2
  2733  05AF  1703               	bsf	3,6	;RP1=1, select bank2
  2734  05B0  008D               	movwf	13	;volatile
  2735  05B1                     i1l1177:
  2736                           
  2737                           ;proyecto.c: 384:     EECON1bits.EEPGD = 0;
  2738  05B1  1683               	bsf	3,5	;RP0=1, select bank3
  2739  05B2  1703               	bsf	3,6	;RP1=1, select bank3
  2740  05B3  138C               	bcf	12,7	;volsfr
  2741  05B4                     i1l1179:
  2742                           
  2743                           ;proyecto.c: 385:     EECON1bits.RD = 1;
  2744  05B4  140C               	bsf	12,0	;volsfr
  2745                           
  2746                           ;proyecto.c: 386:     int dato = EEDATA;
  2747  05B5  1283               	bcf	3,5	;RP0=0, select bank2
  2748  05B6  1703               	bsf	3,6	;RP1=1, select bank2
  2749  05B7  080C               	movf	12,w	;volatile
  2750  05B8  00F2               	movwf	??_read_eeprom
  2751  05B9  01F3               	clrf	??_read_eeprom+1
  2752  05BA  0872               	movf	??_read_eeprom,w
  2753  05BB  00F4               	movwf	read_eeprom@dato
  2754  05BC  0873               	movf	??_read_eeprom+1,w
  2755  05BD  00F5               	movwf	read_eeprom@dato+1
  2756                           
  2757                           ;proyecto.c: 387:     return dato;
  2758  05BE  0874               	movf	read_eeprom@dato,w
  2759  05BF                     i1l209:
  2760  05BF  0008               	return
  2761  05C0                     __end_of_read_eeprom:
  2762                           
  2763                           	psect	text9
  2764  0562                     __ptext9:	
  2765 ;; *************** function _bitb3 *****************
  2766 ;; Defined at:
  2767 ;;		line 342 in file "proyecto.c"
  2768 ;; Parameters:    Size  Location     Type
  2769 ;;		None
  2770 ;; Auto vars:     Size  Location     Type
  2771 ;;		None
  2772 ;; Return value:  Size  Location     Type
  2773 ;;                  1    wreg      void 
  2774 ;; Registers used:
  2775 ;;		wreg
  2776 ;; Tracked objects:
  2777 ;;		On entry : 0/0
  2778 ;;		On exit  : 0/0
  2779 ;;		Unchanged: 0/0
  2780 ;; Data sizes:     COMMON   BANK0   BANK1   BANK3   BANK2
  2781 ;;      Params:         0       0       0       0       0
  2782 ;;      Locals:         0       0       0       0       0
  2783 ;;      Temps:          2       0       0       0       0
  2784 ;;      Totals:         2       0       0       0       0
  2785 ;;Total ram usage:        2 bytes
  2786 ;; Hardware stack levels used:    1
  2787 ;; This function calls:
  2788 ;;		Nothing
  2789 ;; This function is called by:
  2790 ;;		_isr
  2791 ;; This function uses a non-reentrant model
  2792 ;;
  2793                           
  2794                           
  2795                           ;psect for function _bitb3
  2796  0562                     _bitb3:
  2797  0562                     i1l1149:	
  2798                           ;incstack = 0
  2799                           ; Regs used in _bitb3: [wreg]
  2800                           
  2801                           
  2802                           ;proyecto.c: 344:         PORTCbits.RC3 = 1;
  2803  0562  1283               	bcf	3,5	;RP0=0, select bank0
  2804  0563  1303               	bcf	3,6	;RP1=0, select bank0
  2805  0564  1587               	bsf	7,3	;volatile
  2806  0565                     i1l1151:
  2807                           
  2808                           ;proyecto.c: 345:         _delay((unsigned long)((2)*(8000000/4000.0)));
  2809  0565  3006               	movlw	6
  2810  0566  00F1               	movwf	??_bitb3+1
  2811  0567  3030               	movlw	48
  2812  0568  00F0               	movwf	??_bitb3
  2813  0569                     u62_27:
  2814  0569  0BF0               	decfsz	??_bitb3,f
  2815  056A  2D69               	goto	u62_27
  2816  056B  0BF1               	decfsz	??_bitb3+1,f
  2817  056C  2D69               	goto	u62_27
  2818  056D  0000               	nop
  2819  056E                     i1l1153:
  2820                           
  2821                           ;proyecto.c: 346:         PORTCbits.RC3 = 0;
  2822  056E  1283               	bcf	3,5	;RP0=0, select bank0
  2823  056F  1303               	bcf	3,6	;RP1=0, select bank0
  2824  0570  1187               	bcf	7,3	;volatile
  2825                           
  2826                           ;proyecto.c: 347:         _delay((unsigned long)((18)*(8000000/4000.0)));
  2827  0571  302F               	movlw	47
  2828  0572  00F1               	movwf	??_bitb3+1
  2829  0573  30BF               	movlw	191
  2830  0574  00F0               	movwf	??_bitb3
  2831  0575                     u63_27:
  2832  0575  0BF0               	decfsz	??_bitb3,f
  2833  0576  2D75               	goto	u63_27
  2834  0577  0BF1               	decfsz	??_bitb3+1,f
  2835  0578  2D75               	goto	u63_27
  2836  0579  2D7A               	nop2
  2837  057A                     i1l200:
  2838  057A  0008               	return
  2839  057B                     __end_of_bitb3:
  2840                           
  2841                           	psect	text10
  2842  057B                     __ptext10:	
  2843 ;; *************** function _bitb2 *****************
  2844 ;; Defined at:
  2845 ;;		line 334 in file "proyecto.c"
  2846 ;; Parameters:    Size  Location     Type
  2847 ;;		None
  2848 ;; Auto vars:     Size  Location     Type
  2849 ;;		None
  2850 ;; Return value:  Size  Location     Type
  2851 ;;                  1    wreg      void 
  2852 ;; Registers used:
  2853 ;;		wreg
  2854 ;; Tracked objects:
  2855 ;;		On entry : 0/0
  2856 ;;		On exit  : 0/0
  2857 ;;		Unchanged: 0/0
  2858 ;; Data sizes:     COMMON   BANK0   BANK1   BANK3   BANK2
  2859 ;;      Params:         0       0       0       0       0
  2860 ;;      Locals:         0       0       0       0       0
  2861 ;;      Temps:          2       0       0       0       0
  2862 ;;      Totals:         2       0       0       0       0
  2863 ;;Total ram usage:        2 bytes
  2864 ;; Hardware stack levels used:    1
  2865 ;; This function calls:
  2866 ;;		Nothing
  2867 ;; This function is called by:
  2868 ;;		_isr
  2869 ;; This function uses a non-reentrant model
  2870 ;;
  2871                           
  2872                           
  2873                           ;psect for function _bitb2
  2874  057B                     _bitb2:
  2875  057B                     i1l1143:	
  2876                           ;incstack = 0
  2877                           ; Regs used in _bitb2: [wreg]
  2878                           
  2879                           
  2880                           ;proyecto.c: 336:         PORTCbits.RC3 = 1;
  2881  057B  1283               	bcf	3,5	;RP0=0, select bank0
  2882  057C  1303               	bcf	3,6	;RP1=0, select bank0
  2883  057D  1587               	bsf	7,3	;volatile
  2884  057E                     i1l1145:
  2885                           
  2886                           ;proyecto.c: 337:         _delay((unsigned long)((1.5)*(8000000/4000.0)));
  2887  057E  3004               	movlw	4
  2888  057F  00F1               	movwf	??_bitb2+1
  2889  0580  30E4               	movlw	228
  2890  0581  00F0               	movwf	??_bitb2
  2891  0582                     u64_27:
  2892  0582  0BF0               	decfsz	??_bitb2,f
  2893  0583  2D82               	goto	u64_27
  2894  0584  0BF1               	decfsz	??_bitb2+1,f
  2895  0585  2D82               	goto	u64_27
  2896  0586  0000               	nop
  2897  0587                     i1l1147:
  2898                           
  2899                           ;proyecto.c: 338:         PORTCbits.RC3 = 0;
  2900  0587  1283               	bcf	3,5	;RP0=0, select bank0
  2901  0588  1303               	bcf	3,6	;RP1=0, select bank0
  2902  0589  1187               	bcf	7,3	;volatile
  2903                           
  2904                           ;proyecto.c: 339:         _delay((unsigned long)((18.5)*(8000000/4000.0)));
  2905  058A  3031               	movlw	49
  2906  058B  00F1               	movwf	??_bitb2+1
  2907  058C  300B               	movlw	11
  2908  058D  00F0               	movwf	??_bitb2
  2909  058E                     u65_27:
  2910  058E  0BF0               	decfsz	??_bitb2,f
  2911  058F  2D8E               	goto	u65_27
  2912  0590  0BF1               	decfsz	??_bitb2+1,f
  2913  0591  2D8E               	goto	u65_27
  2914  0592  2D93               	nop2
  2915  0593                     i1l197:
  2916  0593  0008               	return
  2917  0594                     __end_of_bitb2:
  2918                           
  2919                           	psect	text11
  2920  0594                     __ptext11:	
  2921 ;; *************** function _bitb1 *****************
  2922 ;; Defined at:
  2923 ;;		line 326 in file "proyecto.c"
  2924 ;; Parameters:    Size  Location     Type
  2925 ;;		None
  2926 ;; Auto vars:     Size  Location     Type
  2927 ;;		None
  2928 ;; Return value:  Size  Location     Type
  2929 ;;                  1    wreg      void 
  2930 ;; Registers used:
  2931 ;;		wreg
  2932 ;; Tracked objects:
  2933 ;;		On entry : 0/0
  2934 ;;		On exit  : 0/0
  2935 ;;		Unchanged: 0/0
  2936 ;; Data sizes:     COMMON   BANK0   BANK1   BANK3   BANK2
  2937 ;;      Params:         0       0       0       0       0
  2938 ;;      Locals:         0       0       0       0       0
  2939 ;;      Temps:          2       0       0       0       0
  2940 ;;      Totals:         2       0       0       0       0
  2941 ;;Total ram usage:        2 bytes
  2942 ;; Hardware stack levels used:    1
  2943 ;; This function calls:
  2944 ;;		Nothing
  2945 ;; This function is called by:
  2946 ;;		_isr
  2947 ;; This function uses a non-reentrant model
  2948 ;;
  2949                           
  2950                           
  2951                           ;psect for function _bitb1
  2952  0594                     _bitb1:
  2953  0594                     i1l1137:	
  2954                           ;incstack = 0
  2955                           ; Regs used in _bitb1: [wreg]
  2956                           
  2957                           
  2958                           ;proyecto.c: 328:         PORTCbits.RC3 = 1;
  2959  0594  1283               	bcf	3,5	;RP0=0, select bank0
  2960  0595  1303               	bcf	3,6	;RP1=0, select bank0
  2961  0596  1587               	bsf	7,3	;volatile
  2962  0597                     i1l1139:
  2963                           
  2964                           ;proyecto.c: 329:         _delay((unsigned long)((1)*(8000000/4000.0)));
  2965  0597  3003               	movlw	3
  2966  0598  00F1               	movwf	??_bitb1+1
  2967  0599  3097               	movlw	151
  2968  059A  00F0               	movwf	??_bitb1
  2969  059B                     u66_27:
  2970  059B  0BF0               	decfsz	??_bitb1,f
  2971  059C  2D9B               	goto	u66_27
  2972  059D  0BF1               	decfsz	??_bitb1+1,f
  2973  059E  2D9B               	goto	u66_27
  2974  059F  2DA0               	nop2
  2975  05A0                     i1l1141:
  2976                           
  2977                           ;proyecto.c: 330:         PORTCbits.RC3 = 0;
  2978  05A0  1283               	bcf	3,5	;RP0=0, select bank0
  2979  05A1  1303               	bcf	3,6	;RP1=0, select bank0
  2980  05A2  1187               	bcf	7,3	;volatile
  2981                           
  2982                           ;proyecto.c: 331:         _delay((unsigned long)((19)*(8000000/4000.0)));
  2983  05A3  3032               	movlw	50
  2984  05A4  00F1               	movwf	??_bitb1+1
  2985  05A5  3058               	movlw	88
  2986  05A6  00F0               	movwf	??_bitb1
  2987  05A7                     u67_27:
  2988  05A7  0BF0               	decfsz	??_bitb1,f
  2989  05A8  2DA7               	goto	u67_27
  2990  05A9  0BF1               	decfsz	??_bitb1+1,f
  2991  05AA  2DA7               	goto	u67_27
  2992  05AB  0000               	nop
  2993  05AC                     i1l194:
  2994  05AC  0008               	return
  2995  05AD                     __end_of_bitb1:
  2996  007E                     btemp	set	126	;btemp
  2997  007E                     wtemp0	set	126
  2998                           
  2999                           	psect	config
  3000                           
  3001                           ;Config register CONFIG1 @ 0x2007
  3002                           ;	Oscillator Selection bits
  3003                           ;	FOSC = INTRC_NOCLKOUT, INTOSCIO oscillator: I/O function on RA6/OSC2/CLKOUT pin, I/O f
      +                          unction on RA7/OSC1/CLKIN
  3004                           ;	Watchdog Timer Enable bit
  3005                           ;	WDTE = OFF, WDT disabled and can be enabled by SWDTEN bit of the WDTCON register
  3006                           ;	Power-up Timer Enable bit
  3007                           ;	PWRTE = OFF, PWRT disabled
  3008                           ;	RE3/MCLR pin function select bit
  3009                           ;	MCLRE = OFF, RE3/MCLR pin function is digital input, MCLR internally tied to VDD
  3010                           ;	Code Protection bit
  3011                           ;	CP = OFF, Program memory code protection is disabled
  3012                           ;	Data Code Protection bit
  3013                           ;	CPD = OFF, Data memory code protection is disabled
  3014                           ;	Brown Out Reset Selection bits
  3015                           ;	BOREN = OFF, BOR disabled
  3016                           ;	Internal External Switchover bit
  3017                           ;	IESO = OFF, Internal/External Switchover mode is disabled
  3018                           ;	Fail-Safe Clock Monitor Enabled bit
  3019                           ;	FCMEN = ON, Fail-Safe Clock Monitor is enabled
  3020                           ;	Low Voltage Programming Enable bit
  3021                           ;	LVP = ON, RB3/PGM pin has PGM function, low voltage programming enabled
  3022                           ;	In-Circuit Debugger Mode bit
  3023                           ;	DEBUG = 0x1, unprogrammed default
  3024  2007                     	org	8199
  3025  2007  38D4               	dw	14548
  3026                           
  3027                           ;Config register CONFIG2 @ 0x2008
  3028                           ;	Brown-out Reset Selection bit
  3029                           ;	BOR4V = BOR40V, Brown-out Reset set to 4.0V
  3030                           ;	Flash Program Memory Self Write Enable bits
  3031                           ;	WRT = OFF, Write protection off
  3032  2008                     	org	8200
  3033  2008  3FFF               	dw	16383

Data Sizes:
    Strings     296
    Constant    0
    Data        0
    BSS         27
    Persistent  0
    Stack       0

Auto Spaces:
    Space          Size  Autos    Used
    COMMON           14      8      13
    BANK0            80     16      38
    BANK1            80      0       0
    BANK3            96      0       0
    BANK2            96      0       0

Pointer List with Targets:

    printf@f	PTR const unsigned char  size(2) Largest target is 35
		 -> STR_19(CODE[32]), STR_18(CODE[13]), STR_17(CODE[13]), STR_16(CODE[32]), 
		 -> STR_15(CODE[34]), STR_14(CODE[29]), STR_13(CODE[20]), STR_12(CODE[32]), 
		 -> STR_11(CODE[34]), STR_10(CODE[29]), STR_9(CODE[22]), STR_8(CODE[32]), 
		 -> STR_7(CODE[34]), STR_6(CODE[35]), STR_5(CODE[22]), STR_4(CODE[32]), 
		 -> STR_3(CODE[34]), STR_2(CODE[25]), STR_1(CODE[19]), 

    printf@ap	PTR void [1] size(1) Largest target is 2
		 -> ?_printf(BANK0[2]), 


Critical Paths under _main in COMMON

    None.

Critical Paths under _isr in COMMON

    _isr->i1_printf
    i1_printf->i1_putch

Critical Paths under _main in BANK0

    _main->_printf
    _printf->_putch

Critical Paths under _isr in BANK0

    None.

Critical Paths under _main in BANK1

    None.

Critical Paths under _isr in BANK1

    None.

Critical Paths under _main in BANK3

    None.

Critical Paths under _isr in BANK3

    None.

Critical Paths under _main in BANK2

    None.

Critical Paths under _isr in BANK2

    None.

Call Graph Tables:

 ---------------------------------------------------------------------------------
 (Depth) Function   	        Calls       Base Space   Used Autos Params    Refs
 ---------------------------------------------------------------------------------
 (0) _main                                                 1     1      0    1044
                                             15 BANK0      1     1      0
                             _printf
                              _setup
 ---------------------------------------------------------------------------------
 (1) _setup                                                1     1      0       0
                                              7 BANK0      1     1      0
 ---------------------------------------------------------------------------------
 (1) _printf                                              19    17      2    1044
                                              8 BANK0      7     5      2
                              _putch
 ---------------------------------------------------------------------------------
 (2) _putch                                                1     1      0      22
                                              7 BANK0      1     1      0
 ---------------------------------------------------------------------------------
 Estimated maximum stack depth 2
 ---------------------------------------------------------------------------------
 (Depth) Function   	        Calls       Base Space   Used Autos Params    Refs
 ---------------------------------------------------------------------------------
 (3) _isr                                                  7     7      0    1993
                                              0 BANK0      7     7      0
                              _bitb1
                              _bitb2
                              _bitb3
                        _read_eeprom
                       _write_eeprom
                           i1_printf
 ---------------------------------------------------------------------------------
 (4) i1_printf                                            19    17      2     536
                                              1 COMMON     7     5      2
                            i1_putch
 ---------------------------------------------------------------------------------
 (5) i1_putch                                              1     1      0      22
                                              0 COMMON     1     1      0
 ---------------------------------------------------------------------------------
 (4) _write_eeprom                                         4     0      4     956
                                              0 COMMON     4     0      4
 ---------------------------------------------------------------------------------
 (4) _read_eeprom                                          6     4      2     501
                                              0 COMMON     6     4      2
 ---------------------------------------------------------------------------------
 (4) _bitb3                                                2     2      0       0
                                              0 COMMON     2     2      0
 ---------------------------------------------------------------------------------
 (4) _bitb2                                                2     2      0       0
                                              0 COMMON     2     2      0
 ---------------------------------------------------------------------------------
 (4) _bitb1                                                2     2      0       0
                                              0 COMMON     2     2      0
 ---------------------------------------------------------------------------------
 Estimated maximum stack depth 5
 ---------------------------------------------------------------------------------

 Call Graph Graphs:

 _main (ROOT)
   _printf
     _putch
   _setup

 _isr (ROOT)
   _bitb1
   _bitb2
   _bitb3
   _read_eeprom
   _write_eeprom
   i1_printf
     i1_putch

 Address spaces:
Name               Size   Autos  Total    Cost      Usage
BITCOMMON            E      0       0       0        0.0%
EEDATA             100      0       0       0        0.0%
NULL                 0      0       0       0        0.0%
CODE                 0      0       0       0        0.0%
COMMON               E      8       D       1       92.9%
BITSFR0              0      0       0       1        0.0%
SFR0                 0      0       0       1        0.0%
BITSFR1              0      0       0       2        0.0%
SFR1                 0      0       0       2        0.0%
STACK                0      0       0       2        0.0%
ABS                  0      0      33       3        0.0%
BITBANK0            50      0       0       4        0.0%
BITSFR3              0      0       0       4        0.0%
SFR3                 0      0       0       4        0.0%
BANK0               50     10      26       5       47.5%
BITSFR2              0      0       0       5        0.0%
SFR2                 0      0       0       5        0.0%
BITBANK1            50      0       0       6        0.0%
BANK1               50      0       0       7        0.0%
BITBANK3            60      0       0       8        0.0%
BANK3               60      0       0       9        0.0%
BITBANK2            60      0       0      10        0.0%
BANK2               60      0       0      11        0.0%
DATA                 0      0      33      12        0.0%


Microchip Technology PIC Macro Assembler V2.31 build 20201012212115 
Symbol Table                                                                                   Fri Jun 04 22:42:17 2021

                      pc 0002                       fsr 0004                      l301 0519  
                    l182 05D5                      l190 0488                      l191 04AD  
                    l185 05DB                      l188 0484                      u300 0519  
                    u301 0518                      u320 0488                      u321 0487  
                    _PR2 0092                      u280 05D9                      u520 04C6  
                    u281 05D8                      u521 04C5                      u530 04CF  
                    u531 04CE                      u540 04DD                      u541 04DC  
                    u557 04E8                      u567 0463                      _isr 0027  
                    _val 007C                      fsr0 0004                      indf 0000  
                   l1201 043C                     l1211 0441                     l1203 043D  
                   l1125 05D5                     l1221 044F                     l1213 0442  
                   l1205 043E                     l1127 05D9                     l1231 0455  
                   l1223 0451                     l1215 0443                     l1207 043F  
                   l1241 0466                     l1233 0456                     l1225 0452  
                   l1217 0444                     l1209 0440                     l1155 04F2  
                   l1251 0474                     l1243 0469                     l1235 045C  
                   l1227 0453                     l1219 044C                     l1157 04F9  
                   l1261 047F                     l1253 0476                     l1245 046A  
                   l1237 045D                     l1229 0454                     l1421 04B7  
                   l1159 04FF                     l1271 04A0                     l1263 0480  
                   l1255 047A                     l1247 046C                     l1239 045F  
                   l1191 0437                     l1183 0428                     l1431 04DD  
                   l1423 04C0                     l1415 04AE                     l1281 04A9  
                   l1273 04A1                     l1265 0481                     l1257 047C  
                   l1249 0470                     l1193 0438                     l1185 042E  
                   l1433 04E2                     l1425 04C6                     l1417 04B3  
                   l1283 04AC                     l1275 04A4                     l1267 0483  
                   l1259 047E                     l1195 0439                     l1187 0432  
                   l1435 04E4                     l1427 04CF                     l1419 04B6  
                   l1277 04A5                     l1269 049C                     l1197 043A  
                   l1189 0433                     l1437 04EB                     l1429 04D4  
                   l1279 04A6                     l1199 043B                     ?_isr 0070  
                   STR_1 03FB                     STR_2 03A2                     STR_3 0323  
                   STR_4 0345                     STR_5 03D1                     STR_6 0300  
                   STR_7 0323                     STR_8 0345                     STR_9 03BB  
                   _RBIF 0058                     _RCIF 0065                     _TXIF 0064  
                   _WPUB 0095                     _dato 0022                     _main 04AE  
                   _val1 007A                     _val2 0078                     _val3 0034  
                   _val4 0032                     _val5 0030                     btemp 007E  
                   start 0012          __end_ofi1_putch 05E6                    ??_isr 0036  
                  ?_main 0070                    _EEADR 010D                    STR_10 0385  
                  _EEDAT 010C                    STR_11 0323                    STR_12 0345  
                  STR_13 03E7                    STR_14 0385                    STR_15 0323  
                  STR_16 0345                    STR_17 040E                    STR_18 041B  
                  STR_19 0365                    _ANSEL 0188                    i1l200 057A  
                  i1l203 0556                    i1l205 055C                    i1l301 053F  
                  i1l206 0561                    i1l209 05BF                    i1l154 02A3  
                  i1l163 02C7                    i1l149 008E                    i1l182 05DD  
                  i1l166 02E7                    i1l185 05E5                    i1l194 05AC  
                  i1l197 0593                    _RCREG 001A                    u31_20 055C  
                  u31_21 055B                    u40_20 007D                    u40_21 007C  
                  u33_20 053F                    u41_20 0088                    u33_21 053E  
                  u41_21 0087                    u50_20 02AB                    u42_20 0095  
                  u34_20 002B                    u50_21 02AA                    u42_21 0094  
                  u34_21 002A                    _SPBRG 0099                    u51_20 02CB  
                  u43_20 009B                    u35_20 0034                    u51_21 02CA  
                  u43_21 009A                    u35_21 0033                    _PORTA 0005  
                  _PORTB 0006                    _PORTC 0007                    _PORTD 0008  
                  _PORTE 0009                    u44_20 00DA                    u36_20 004B  
                  u44_21 00D9                    u36_21 004A                    u60_27 01E8  
                  u29_20 05E3                    u45_20 0109                    u37_20 0062  
                  u29_21 05E2                    u45_21 0108                    u37_21 0061  
                  u61_27 026E                    u46_20 0149                    u38_20 006C  
                  u46_21 0148                    u38_21 006B                    u62_27 0569  
                  u47_20 0189                    u39_20 0077                    u47_21 0188  
                  u39_21 0076                    u63_27 0575                    u48_20 0200  
                  u48_21 01FF                    u64_27 0582                    u49_20 02A7  
                  u49_21 02A6                    _TRISA 0085                    u65_27 058E  
                  u57_27 00A3                    u66_27 059B                    u58_27 011F  
                  u67_27 05A7                    u59_27 015F                    _TXREG 0019  
           ?_read_eeprom 0070                    _bitb1 0594                    _bitb2 057B  
                  _bitb3 0562                    _setup 0428                    _putch 05D2  
                  pclath 000A                    status 0003                    wtemp0 007E  
       __end_ofi1_printf 0540               i1printf@ap 0076          __initialization 0015  
           __end_of_main 04F2    __size_of_write_eeprom 0022                   ??_main 0045  
                 ?_bitb1 0070                   ?_bitb2 0070                   ?_bitb3 0070  
                 _ADRESH 001E                   _EEDATA 010C                   _CCPR1L 0015  
                 _CCPR2L 001B                   _EECON2 018D                   ?_setup 0070  
                 ?_putch 0070                   _ANSELH 0189                   i1l1131 05DD  
                 i1l1141 05A0                   i1l1133 05E3                   i1l1301 004B  
                 i1l1143 057B                   i1l1151 0565                   i1l1311 0071  
                 i1l1303 0051                   i1l1137 0594                   i1l1145 057E  
                 i1l1153 056E                   i1l1161 0540                   i1l1401 029E  
                 i1l1313 0077                   i1l1305 0059                   i1l1321 008E  
                 i1l1139 0597                   i1l1147 0587                   i1l1171 0550  
                 i1l1163 0546                   i1l1411 02CE                   i1l1403 02A7  
                 i1l1331 00B2                   i1l1315 007D                   i1l1307 0062  
                 i1l1323 0091                   i1l1149 0562                   i1l1173 0555  
                 i1l1165 0547                   i1l1413 02E6                   i1l1405 02AB  
                 i1l1341 00C9                   i1l1333 00B5                   i1l1325 0095  
                 i1l1317 0082                   i1l1309 006C                   i1l1175 05AD  
                 i1l1167 054A                   i1l1407 02AE                   i1l1351 0109  
                 i1l1335 00B6                   i1l1327 009B                   i1l1343 00D2  
                 i1l1319 0088                   i1l1177 05B1                   i1l1169 054D  
                 i1l1409 02CB                   i1l1361 0138                   i1l1353 010E  
                 i1l1345 00DA                   i1l1337 00B7                   i1l1329 00A9  
                 i1l1179 05B4                   i1l1371 0166                   i1l1355 0117  
                 i1l1363 0141                   i1l1347 00DD                   i1l1339 00C0  
                 i1l1291 0027                   i1l1285 051A                   i1l1381 01E0  
                 i1l1373 016F                   i1l1365 0149                   i1l1357 0126  
                 i1l1349 0101                   i1l1293 002B                   i1l1287 051F  
                 i1l1391 0275                   i1l1383 01EF                   i1l1375 0178  
                 i1l1367 014E                   i1l1359 012F                   i1l1295 0034  
                 i1l1289 0525                   i1l1393 027E                   i1l1385 01F8  
                 i1l1369 0157                   i1l1377 0181                   i1l1297 003A  
                 i1l1395 028A                   i1l1387 0200                   i1l1379 0189  
                 i1l1299 0042                   i1l1397 0294                   i1l1389 0266  
                 i1l1399 0299                ??i1_putch 0070                   _SPBRGH 009A  
           _write_eeprom 0540                   _printf 04F2                   saved_w 007E  
__end_of__initialization 0023           __pcstackCOMMON 0070            __end_of_bitb1 05AD  
          __end_of_bitb2 0594            __end_of_bitb3 057B              i1putch@data 0070  
          __end_of_setup 04AE            __end_of_putch 05DC           _OPTION_REGbits 0081  
              ?i1_printf 0071                  ??_bitb1 0070                  ??_bitb2 0070  
                ??_bitb3 0070     __size_of_read_eeprom 0013                  ??_setup 003D  
                ??_putch 003D               __pbssBANK0 0020     read_eeprom@direccion 0070  
             __pmaintext 04AE               __pintentry 0004                  ?_printf 003E  
             ??i1_printf 0073         write_eeprom@dato 0070               __stringtab 05C0  
                i1_putch 05DC                  __ptext1 0428                  __ptext2 04F2  
                __ptext3 05D2                  __ptext4 0027                  __ptext5 051A  
                __ptext6 05DC                  __ptext7 0540                  __ptext8 05AD  
                __ptext9 0562          __size_of_printf 0028                _T2CONbits 0012  
           __size_of_isr 02CB                  clrloop0 05E7     end_of_initialization 0023  
              _RCSTAbits 0018                  printf@c 0044                  printf@f 003E  
           __pstringtext 0300                _PORTBbits 0006                _PORTCbits 0007  
              _PORTDbits 0008                _PORTEbits 0009                _TRISBbits 0086  
              _TRISCbits 0087                _TRISDbits 0088                _TRISEbits 0089  
            _CCP1CONbits 0017              _CCP2CONbits 001D                _TXSTAbits 0098  
            _BAUDCTLbits 0187           __end_of_printf 051A      start_initialization 0015  
              i1printf@c 0077                i1printf@f 0071              __end_of_isr 02F2  
      __size_ofi1_printf 0026                 ??_printf 0040              __pbssCOMMON 0078  
          ??_read_eeprom 0072                ___latbits 0002            __pcstackBANK0 0036  
               ?i1_putch 0070                _direccion 0020                __pstrings 05C0  
         __size_of_bitb1 0019           __size_of_bitb2 0019           __size_of_bitb3 0019  
         __size_of_setup 0086           __size_of_putch 000A      __end_of_read_eeprom 05C0  
      interrupt_function 0004                 _IOCBbits 0096                clear_ram0 05E6  
               _PIE1bits 008C            ?_write_eeprom 0070          read_eeprom@dato 0074  
               _PIR1bits 000C                 _PIR2bits 000D               _ADCON0bits 001F  
            __stringbase 05D2               _ADCON1bits 009F                 i1_printf 051A  
       __size_ofi1_putch 000A           ??_write_eeprom 0074               _EECON1bits 018C  
     __end_of__stringtab 05D2              _read_eeprom 05AD                 __ptext10 057B  
               __ptext11 0594                 _lectura1 002E                 _lectura2 002C  
               _lectura3 002A                 _lectura4 0028                 _lectura5 0026  
               _lectura6 0024            __size_of_main 0044                putch@data 003D  
             _INTCONbits 000B                 intlevel1 0000                stringcode 05CA  
             _OSCCONbits 008F                 printf@ap 0043    write_eeprom@direccion 0072  
   __end_of_write_eeprom 0562                 stringtab 05C0  
